ARM GAS  C:\Users\jsing\AppData\Local\Temp\ccbWMv7t.s 			page 1


   1              		.cpu cortex-m0
   2              		.fpu softvfp
   3              		.eabi_attribute 20, 1
   4              		.eabi_attribute 21, 1
   5              		.eabi_attribute 23, 3
   6              		.eabi_attribute 24, 1
   7              		.eabi_attribute 25, 1
   8              		.eabi_attribute 26, 1
   9              		.eabi_attribute 30, 6
  10              		.eabi_attribute 34, 0
  11              		.eabi_attribute 18, 4
  12              		.code	16
  13              		.file	"PWM_1.c"
  14              		.text
  15              	.Ltext0:
  16              		.cfi_sections	.debug_frame
  17              		.global	PWM_1_initVar
  18              		.bss
  19              		.type	PWM_1_initVar, %object
  20              		.size	PWM_1_initVar, 1
  21              	PWM_1_initVar:
  22 0000 00       		.space	1
  23              		.section	.text.PWM_1_Start,"ax",%progbits
  24              		.align	2
  25              		.global	PWM_1_Start
  26              		.code	16
  27              		.thumb_func
  28              		.type	PWM_1_Start, %function
  29              	PWM_1_Start:
  30              	.LFB2:
  31              		.file 1 ".\\Generated_Source\\PSoC4\\PWM_1.c"
   1:.\Generated_Source\PSoC4/PWM_1.c **** /*******************************************************************************
   2:.\Generated_Source\PSoC4/PWM_1.c **** * File Name: PWM_1.c
   3:.\Generated_Source\PSoC4/PWM_1.c **** * Version 3.30
   4:.\Generated_Source\PSoC4/PWM_1.c **** *
   5:.\Generated_Source\PSoC4/PWM_1.c **** * Description:
   6:.\Generated_Source\PSoC4/PWM_1.c **** *  The PWM User Module consist of an 8 or 16-bit counter with two 8 or 16-bit
   7:.\Generated_Source\PSoC4/PWM_1.c **** *  comparitors. Each instance of this user module is capable of generating
   8:.\Generated_Source\PSoC4/PWM_1.c **** *  two PWM outputs with the same period. The pulse width is selectable between
   9:.\Generated_Source\PSoC4/PWM_1.c **** *  1 and 255/65535. The period is selectable between 2 and 255/65536 clocks.
  10:.\Generated_Source\PSoC4/PWM_1.c **** *  The compare value output may be configured to be active when the present
  11:.\Generated_Source\PSoC4/PWM_1.c **** *  counter is less than or less than/equal to the compare value.
  12:.\Generated_Source\PSoC4/PWM_1.c **** *  A terminal count output is also provided. It generates a pulse one clock
  13:.\Generated_Source\PSoC4/PWM_1.c **** *  width wide when the counter is equal to zero.
  14:.\Generated_Source\PSoC4/PWM_1.c **** *
  15:.\Generated_Source\PSoC4/PWM_1.c **** * Note:
  16:.\Generated_Source\PSoC4/PWM_1.c **** *
  17:.\Generated_Source\PSoC4/PWM_1.c **** *******************************************************************************
  18:.\Generated_Source\PSoC4/PWM_1.c **** * Copyright 2008-2014, Cypress Semiconductor Corporation.  All rights reserved.
  19:.\Generated_Source\PSoC4/PWM_1.c **** * You may use this file only in accordance with the license, terms, conditions,
  20:.\Generated_Source\PSoC4/PWM_1.c **** * disclaimers, and limitations in the end user license agreement accompanying
  21:.\Generated_Source\PSoC4/PWM_1.c **** * the software package with which this file was provided.
  22:.\Generated_Source\PSoC4/PWM_1.c **** ********************************************************************************/
  23:.\Generated_Source\PSoC4/PWM_1.c **** 
  24:.\Generated_Source\PSoC4/PWM_1.c **** #include "PWM_1.h"
  25:.\Generated_Source\PSoC4/PWM_1.c **** 
  26:.\Generated_Source\PSoC4/PWM_1.c **** /* Error message for removed <resource> through optimization */
ARM GAS  C:\Users\jsing\AppData\Local\Temp\ccbWMv7t.s 			page 2


  27:.\Generated_Source\PSoC4/PWM_1.c **** #ifdef PWM_1_PWMUDB_genblk1_ctrlreg__REMOVED
  28:.\Generated_Source\PSoC4/PWM_1.c ****     #error PWM_v3_30 detected with a constant 0 for the enable or \
  29:.\Generated_Source\PSoC4/PWM_1.c ****          constant 1 for reset. This will prevent the component from operating.
  30:.\Generated_Source\PSoC4/PWM_1.c **** #endif /* PWM_1_PWMUDB_genblk1_ctrlreg__REMOVED */
  31:.\Generated_Source\PSoC4/PWM_1.c **** 
  32:.\Generated_Source\PSoC4/PWM_1.c **** uint8 PWM_1_initVar = 0u;
  33:.\Generated_Source\PSoC4/PWM_1.c **** 
  34:.\Generated_Source\PSoC4/PWM_1.c **** 
  35:.\Generated_Source\PSoC4/PWM_1.c **** /*******************************************************************************
  36:.\Generated_Source\PSoC4/PWM_1.c **** * Function Name: PWM_1_Start
  37:.\Generated_Source\PSoC4/PWM_1.c **** ********************************************************************************
  38:.\Generated_Source\PSoC4/PWM_1.c **** *
  39:.\Generated_Source\PSoC4/PWM_1.c **** * Summary:
  40:.\Generated_Source\PSoC4/PWM_1.c **** *  The start function initializes the pwm with the default values, the
  41:.\Generated_Source\PSoC4/PWM_1.c **** *  enables the counter to begin counting.  It does not enable interrupts,
  42:.\Generated_Source\PSoC4/PWM_1.c **** *  the EnableInt command should be called if interrupt generation is required.
  43:.\Generated_Source\PSoC4/PWM_1.c **** *
  44:.\Generated_Source\PSoC4/PWM_1.c **** * Parameters:
  45:.\Generated_Source\PSoC4/PWM_1.c **** *  None
  46:.\Generated_Source\PSoC4/PWM_1.c **** *
  47:.\Generated_Source\PSoC4/PWM_1.c **** * Return:
  48:.\Generated_Source\PSoC4/PWM_1.c **** *  None
  49:.\Generated_Source\PSoC4/PWM_1.c **** *
  50:.\Generated_Source\PSoC4/PWM_1.c **** * Global variables:
  51:.\Generated_Source\PSoC4/PWM_1.c **** *  PWM_1_initVar: Is modified when this function is called for the
  52:.\Generated_Source\PSoC4/PWM_1.c **** *   first time. Is used to ensure that initialization happens only once.
  53:.\Generated_Source\PSoC4/PWM_1.c **** *
  54:.\Generated_Source\PSoC4/PWM_1.c **** *******************************************************************************/
  55:.\Generated_Source\PSoC4/PWM_1.c **** void PWM_1_Start(void) 
  56:.\Generated_Source\PSoC4/PWM_1.c **** {
  32              		.loc 1 56 0
  33              		.cfi_startproc
  34 0000 80B5     		push	{r7, lr}
  35              		.cfi_def_cfa_offset 8
  36              		.cfi_offset 7, -8
  37              		.cfi_offset 14, -4
  38 0002 00AF     		add	r7, sp, #0
  39              		.cfi_def_cfa_register 7
  57:.\Generated_Source\PSoC4/PWM_1.c ****     /* If not Initialized then initialize all required hardware and software */
  58:.\Generated_Source\PSoC4/PWM_1.c ****     if(PWM_1_initVar == 0u)
  40              		.loc 1 58 0
  41 0004 064B     		ldr	r3, .L3
  42 0006 1B78     		ldrb	r3, [r3]
  43 0008 002B     		cmp	r3, #0
  44 000a 04D1     		bne	.L2
  59:.\Generated_Source\PSoC4/PWM_1.c ****     {
  60:.\Generated_Source\PSoC4/PWM_1.c ****         PWM_1_Init();
  45              		.loc 1 60 0
  46 000c FFF7FEFF 		bl	PWM_1_Init
  61:.\Generated_Source\PSoC4/PWM_1.c ****         PWM_1_initVar = 1u;
  47              		.loc 1 61 0
  48 0010 034B     		ldr	r3, .L3
  49 0012 0122     		mov	r2, #1
  50 0014 1A70     		strb	r2, [r3]
  51              	.L2:
  62:.\Generated_Source\PSoC4/PWM_1.c ****     }
  63:.\Generated_Source\PSoC4/PWM_1.c ****     PWM_1_Enable();
ARM GAS  C:\Users\jsing\AppData\Local\Temp\ccbWMv7t.s 			page 3


  52              		.loc 1 63 0
  53 0016 FFF7FEFF 		bl	PWM_1_Enable
  64:.\Generated_Source\PSoC4/PWM_1.c **** 
  65:.\Generated_Source\PSoC4/PWM_1.c **** }
  54              		.loc 1 65 0
  55 001a BD46     		mov	sp, r7
  56              		@ sp needed
  57 001c 80BD     		pop	{r7, pc}
  58              	.L4:
  59 001e C046     		.align	2
  60              	.L3:
  61 0020 00000000 		.word	PWM_1_initVar
  62              		.cfi_endproc
  63              	.LFE2:
  64              		.size	PWM_1_Start, .-PWM_1_Start
  65              		.section	.text.PWM_1_Init,"ax",%progbits
  66              		.align	2
  67              		.global	PWM_1_Init
  68              		.code	16
  69              		.thumb_func
  70              		.type	PWM_1_Init, %function
  71              	PWM_1_Init:
  72              	.LFB3:
  66:.\Generated_Source\PSoC4/PWM_1.c **** 
  67:.\Generated_Source\PSoC4/PWM_1.c **** 
  68:.\Generated_Source\PSoC4/PWM_1.c **** /*******************************************************************************
  69:.\Generated_Source\PSoC4/PWM_1.c **** * Function Name: PWM_1_Init
  70:.\Generated_Source\PSoC4/PWM_1.c **** ********************************************************************************
  71:.\Generated_Source\PSoC4/PWM_1.c **** *
  72:.\Generated_Source\PSoC4/PWM_1.c **** * Summary:
  73:.\Generated_Source\PSoC4/PWM_1.c **** *  Initialize component's parameters to the parameters set by user in the
  74:.\Generated_Source\PSoC4/PWM_1.c **** *  customizer of the component placed onto schematic. Usually called in
  75:.\Generated_Source\PSoC4/PWM_1.c **** *  PWM_1_Start().
  76:.\Generated_Source\PSoC4/PWM_1.c **** *
  77:.\Generated_Source\PSoC4/PWM_1.c **** * Parameters:
  78:.\Generated_Source\PSoC4/PWM_1.c **** *  None
  79:.\Generated_Source\PSoC4/PWM_1.c **** *
  80:.\Generated_Source\PSoC4/PWM_1.c **** * Return:
  81:.\Generated_Source\PSoC4/PWM_1.c **** *  None
  82:.\Generated_Source\PSoC4/PWM_1.c **** *
  83:.\Generated_Source\PSoC4/PWM_1.c **** *******************************************************************************/
  84:.\Generated_Source\PSoC4/PWM_1.c **** void PWM_1_Init(void) 
  85:.\Generated_Source\PSoC4/PWM_1.c **** {
  73              		.loc 1 85 0
  74              		.cfi_startproc
  75 0000 90B5     		push	{r4, r7, lr}
  76              		.cfi_def_cfa_offset 12
  77              		.cfi_offset 4, -12
  78              		.cfi_offset 7, -8
  79              		.cfi_offset 14, -4
  80 0002 83B0     		sub	sp, sp, #12
  81              		.cfi_def_cfa_offset 24
  82 0004 00AF     		add	r7, sp, #0
  83              		.cfi_def_cfa_register 7
  86:.\Generated_Source\PSoC4/PWM_1.c ****     #if (PWM_1_UsingFixedFunction || PWM_1_UseControl)
  87:.\Generated_Source\PSoC4/PWM_1.c ****         uint8 ctrl;
  88:.\Generated_Source\PSoC4/PWM_1.c ****     #endif /* (PWM_1_UsingFixedFunction || PWM_1_UseControl) */
ARM GAS  C:\Users\jsing\AppData\Local\Temp\ccbWMv7t.s 			page 4


  89:.\Generated_Source\PSoC4/PWM_1.c **** 
  90:.\Generated_Source\PSoC4/PWM_1.c ****     #if(!PWM_1_UsingFixedFunction)
  91:.\Generated_Source\PSoC4/PWM_1.c ****         #if(PWM_1_UseStatus)
  92:.\Generated_Source\PSoC4/PWM_1.c ****             /* Interrupt State Backup for Critical Region*/
  93:.\Generated_Source\PSoC4/PWM_1.c ****             uint8 PWM_1_interruptState;
  94:.\Generated_Source\PSoC4/PWM_1.c ****         #endif /* (PWM_1_UseStatus) */
  95:.\Generated_Source\PSoC4/PWM_1.c ****     #endif /* (!PWM_1_UsingFixedFunction) */
  96:.\Generated_Source\PSoC4/PWM_1.c **** 
  97:.\Generated_Source\PSoC4/PWM_1.c ****     #if (PWM_1_UsingFixedFunction)
  98:.\Generated_Source\PSoC4/PWM_1.c ****         /* You are allowed to write the compare value (FF only) */
  99:.\Generated_Source\PSoC4/PWM_1.c ****         PWM_1_CONTROL |= PWM_1_CFG0_MODE;
 100:.\Generated_Source\PSoC4/PWM_1.c ****         #if (PWM_1_DeadBand2_4)
 101:.\Generated_Source\PSoC4/PWM_1.c ****             PWM_1_CONTROL |= PWM_1_CFG0_DB;
 102:.\Generated_Source\PSoC4/PWM_1.c ****         #endif /* (PWM_1_DeadBand2_4) */
 103:.\Generated_Source\PSoC4/PWM_1.c **** 
 104:.\Generated_Source\PSoC4/PWM_1.c ****         ctrl = PWM_1_CONTROL3 & ((uint8 )(~PWM_1_CTRL_CMPMODE1_MASK));
 105:.\Generated_Source\PSoC4/PWM_1.c ****         PWM_1_CONTROL3 = ctrl | PWM_1_DEFAULT_COMPARE1_MODE;
 106:.\Generated_Source\PSoC4/PWM_1.c **** 
 107:.\Generated_Source\PSoC4/PWM_1.c ****          /* Clear and Set SYNCTC and SYNCCMP bits of RT1 register */
 108:.\Generated_Source\PSoC4/PWM_1.c ****         PWM_1_RT1 &= ((uint8)(~PWM_1_RT1_MASK));
 109:.\Generated_Source\PSoC4/PWM_1.c ****         PWM_1_RT1 |= PWM_1_SYNC;
 110:.\Generated_Source\PSoC4/PWM_1.c **** 
 111:.\Generated_Source\PSoC4/PWM_1.c ****         /*Enable DSI Sync all all inputs of the PWM*/
 112:.\Generated_Source\PSoC4/PWM_1.c ****         PWM_1_RT1 &= ((uint8)(~PWM_1_SYNCDSI_MASK));
 113:.\Generated_Source\PSoC4/PWM_1.c ****         PWM_1_RT1 |= PWM_1_SYNCDSI_EN;
 114:.\Generated_Source\PSoC4/PWM_1.c **** 
 115:.\Generated_Source\PSoC4/PWM_1.c ****     #elif (PWM_1_UseControl)
 116:.\Generated_Source\PSoC4/PWM_1.c ****         /* Set the default compare mode defined in the parameter */
 117:.\Generated_Source\PSoC4/PWM_1.c ****         ctrl = PWM_1_CONTROL & ((uint8)(~PWM_1_CTRL_CMPMODE2_MASK)) &
  84              		.loc 1 117 0
  85 0006 1E4B     		ldr	r3, .L6
  86 0008 1B78     		ldrb	r3, [r3]
  87 000a DAB2     		uxtb	r2, r3
  88 000c FB1D     		add	r3, r7, #7
  89 000e 3F21     		mov	r1, #63
  90 0010 8A43     		bic	r2, r1
  91 0012 1A70     		strb	r2, [r3]
 118:.\Generated_Source\PSoC4/PWM_1.c ****                 ((uint8)(~PWM_1_CTRL_CMPMODE1_MASK));
 119:.\Generated_Source\PSoC4/PWM_1.c ****         PWM_1_CONTROL = ctrl | PWM_1_DEFAULT_COMPARE2_MODE |
  92              		.loc 1 119 0
  93 0014 1A4B     		ldr	r3, .L6
  94 0016 FA1D     		add	r2, r7, #7
  95 0018 1278     		ldrb	r2, [r2]
  96 001a 0921     		mov	r1, #9
  97 001c 0A43     		orr	r2, r1
  98 001e D2B2     		uxtb	r2, r2
  99 0020 1A70     		strb	r2, [r3]
 120:.\Generated_Source\PSoC4/PWM_1.c ****                                    PWM_1_DEFAULT_COMPARE1_MODE;
 121:.\Generated_Source\PSoC4/PWM_1.c ****     #endif /* (PWM_1_UsingFixedFunction) */
 122:.\Generated_Source\PSoC4/PWM_1.c **** 
 123:.\Generated_Source\PSoC4/PWM_1.c ****     #if (!PWM_1_UsingFixedFunction)
 124:.\Generated_Source\PSoC4/PWM_1.c ****         #if (PWM_1_Resolution == 8)
 125:.\Generated_Source\PSoC4/PWM_1.c ****             /* Set FIFO 0 to 1 byte register for period*/
 126:.\Generated_Source\PSoC4/PWM_1.c ****             PWM_1_AUX_CONTROLDP0 |= (PWM_1_AUX_CTRL_FIFO0_CLR);
 100              		.loc 1 126 0
 101 0022 184B     		ldr	r3, .L6+4
 102 0024 174A     		ldr	r2, .L6+4
ARM GAS  C:\Users\jsing\AppData\Local\Temp\ccbWMv7t.s 			page 5


 103 0026 1278     		ldrb	r2, [r2]
 104 0028 D2B2     		uxtb	r2, r2
 105 002a 0121     		mov	r1, #1
 106 002c 0A43     		orr	r2, r1
 107 002e D2B2     		uxtb	r2, r2
 108 0030 1A70     		strb	r2, [r3]
 127:.\Generated_Source\PSoC4/PWM_1.c ****         #else /* (PWM_1_Resolution == 16)*/
 128:.\Generated_Source\PSoC4/PWM_1.c ****             /* Set FIFO 0 to 1 byte register for period */
 129:.\Generated_Source\PSoC4/PWM_1.c ****             PWM_1_AUX_CONTROLDP0 |= (PWM_1_AUX_CTRL_FIFO0_CLR);
 130:.\Generated_Source\PSoC4/PWM_1.c ****             PWM_1_AUX_CONTROLDP1 |= (PWM_1_AUX_CTRL_FIFO0_CLR);
 131:.\Generated_Source\PSoC4/PWM_1.c ****         #endif /* (PWM_1_Resolution == 8) */
 132:.\Generated_Source\PSoC4/PWM_1.c **** 
 133:.\Generated_Source\PSoC4/PWM_1.c ****         PWM_1_WriteCounter(PWM_1_INIT_PERIOD_VALUE);
 109              		.loc 1 133 0
 110 0032 FF20     		mov	r0, #255
 111 0034 FFF7FEFF 		bl	PWM_1_WriteCounter
 134:.\Generated_Source\PSoC4/PWM_1.c ****     #endif /* (!PWM_1_UsingFixedFunction) */
 135:.\Generated_Source\PSoC4/PWM_1.c **** 
 136:.\Generated_Source\PSoC4/PWM_1.c ****     PWM_1_WritePeriod(PWM_1_INIT_PERIOD_VALUE);
 112              		.loc 1 136 0
 113 0038 FF20     		mov	r0, #255
 114 003a FFF7FEFF 		bl	PWM_1_WritePeriod
 137:.\Generated_Source\PSoC4/PWM_1.c **** 
 138:.\Generated_Source\PSoC4/PWM_1.c ****         #if (PWM_1_UseOneCompareMode)
 139:.\Generated_Source\PSoC4/PWM_1.c ****             PWM_1_WriteCompare(PWM_1_INIT_COMPARE_VALUE1);
 140:.\Generated_Source\PSoC4/PWM_1.c ****         #else
 141:.\Generated_Source\PSoC4/PWM_1.c ****             PWM_1_WriteCompare1(PWM_1_INIT_COMPARE_VALUE1);
 115              		.loc 1 141 0
 116 003e 7F20     		mov	r0, #127
 117 0040 FFF7FEFF 		bl	PWM_1_WriteCompare1
 142:.\Generated_Source\PSoC4/PWM_1.c ****             PWM_1_WriteCompare2(PWM_1_INIT_COMPARE_VALUE2);
 118              		.loc 1 142 0
 119 0044 3F20     		mov	r0, #63
 120 0046 FFF7FEFF 		bl	PWM_1_WriteCompare2
 143:.\Generated_Source\PSoC4/PWM_1.c ****         #endif /* (PWM_1_UseOneCompareMode) */
 144:.\Generated_Source\PSoC4/PWM_1.c **** 
 145:.\Generated_Source\PSoC4/PWM_1.c ****         #if (PWM_1_KillModeMinTime)
 146:.\Generated_Source\PSoC4/PWM_1.c ****             PWM_1_WriteKillTime(PWM_1_MinimumKillTime);
 147:.\Generated_Source\PSoC4/PWM_1.c ****         #endif /* (PWM_1_KillModeMinTime) */
 148:.\Generated_Source\PSoC4/PWM_1.c **** 
 149:.\Generated_Source\PSoC4/PWM_1.c ****         #if (PWM_1_DeadBandUsed)
 150:.\Generated_Source\PSoC4/PWM_1.c ****             PWM_1_WriteDeadTime(PWM_1_INIT_DEAD_TIME);
 151:.\Generated_Source\PSoC4/PWM_1.c ****         #endif /* (PWM_1_DeadBandUsed) */
 152:.\Generated_Source\PSoC4/PWM_1.c **** 
 153:.\Generated_Source\PSoC4/PWM_1.c ****     #if (PWM_1_UseStatus || PWM_1_UsingFixedFunction)
 154:.\Generated_Source\PSoC4/PWM_1.c ****         PWM_1_SetInterruptMode(PWM_1_INIT_INTERRUPTS_MODE);
 121              		.loc 1 154 0
 122 004a 0020     		mov	r0, #0
 123 004c FFF7FEFF 		bl	PWM_1_SetInterruptMode
 155:.\Generated_Source\PSoC4/PWM_1.c ****     #endif /* (PWM_1_UseStatus || PWM_1_UsingFixedFunction) */
 156:.\Generated_Source\PSoC4/PWM_1.c **** 
 157:.\Generated_Source\PSoC4/PWM_1.c ****     #if (PWM_1_UsingFixedFunction)
 158:.\Generated_Source\PSoC4/PWM_1.c ****         /* Globally Enable the Fixed Function Block chosen */
 159:.\Generated_Source\PSoC4/PWM_1.c ****         PWM_1_GLOBAL_ENABLE |= PWM_1_BLOCK_EN_MASK;
 160:.\Generated_Source\PSoC4/PWM_1.c ****         /* Set the Interrupt source to come from the status register */
 161:.\Generated_Source\PSoC4/PWM_1.c ****         PWM_1_CONTROL2 |= PWM_1_CTRL2_IRQ_SEL;
 162:.\Generated_Source\PSoC4/PWM_1.c ****     #else
ARM GAS  C:\Users\jsing\AppData\Local\Temp\ccbWMv7t.s 			page 6


 163:.\Generated_Source\PSoC4/PWM_1.c ****         #if(PWM_1_UseStatus)
 164:.\Generated_Source\PSoC4/PWM_1.c **** 
 165:.\Generated_Source\PSoC4/PWM_1.c ****             /* CyEnterCriticalRegion and CyExitCriticalRegion are used to mark following region cri
 166:.\Generated_Source\PSoC4/PWM_1.c ****             /* Enter Critical Region*/
 167:.\Generated_Source\PSoC4/PWM_1.c ****             PWM_1_interruptState = CyEnterCriticalSection();
 124              		.loc 1 167 0
 125 0050 BC1D     		add	r4, r7, #6
 126 0052 FFF7FEFF 		bl	CyEnterCriticalSection
 127 0056 031C     		mov	r3, r0
 128 0058 2370     		strb	r3, [r4]
 168:.\Generated_Source\PSoC4/PWM_1.c ****             /* Use the interrupt output of the status register for IRQ output */
 169:.\Generated_Source\PSoC4/PWM_1.c ****             PWM_1_STATUS_AUX_CTRL |= PWM_1_STATUS_ACTL_INT_EN_MASK;
 129              		.loc 1 169 0
 130 005a 0A4B     		ldr	r3, .L6+4
 131 005c 094A     		ldr	r2, .L6+4
 132 005e 1278     		ldrb	r2, [r2]
 133 0060 D2B2     		uxtb	r2, r2
 134 0062 1021     		mov	r1, #16
 135 0064 0A43     		orr	r2, r1
 136 0066 D2B2     		uxtb	r2, r2
 137 0068 1A70     		strb	r2, [r3]
 170:.\Generated_Source\PSoC4/PWM_1.c **** 
 171:.\Generated_Source\PSoC4/PWM_1.c ****              /* Exit Critical Region*/
 172:.\Generated_Source\PSoC4/PWM_1.c ****             CyExitCriticalSection(PWM_1_interruptState);
 138              		.loc 1 172 0
 139 006a BB1D     		add	r3, r7, #6
 140 006c 1B78     		ldrb	r3, [r3]
 141 006e 181C     		mov	r0, r3
 142 0070 FFF7FEFF 		bl	CyExitCriticalSection
 173:.\Generated_Source\PSoC4/PWM_1.c **** 
 174:.\Generated_Source\PSoC4/PWM_1.c ****             /* Clear the FIFO to enable the PWM_1_STATUS_FIFOFULL
 175:.\Generated_Source\PSoC4/PWM_1.c ****                    bit to be set on FIFO full. */
 176:.\Generated_Source\PSoC4/PWM_1.c ****             PWM_1_ClearFIFO();
 143              		.loc 1 176 0
 144 0074 FFF7FEFF 		bl	PWM_1_ClearFIFO
 177:.\Generated_Source\PSoC4/PWM_1.c ****         #endif /* (PWM_1_UseStatus) */
 178:.\Generated_Source\PSoC4/PWM_1.c ****     #endif /* (PWM_1_UsingFixedFunction) */
 179:.\Generated_Source\PSoC4/PWM_1.c **** }
 145              		.loc 1 179 0
 146 0078 BD46     		mov	sp, r7
 147 007a 03B0     		add	sp, sp, #12
 148              		@ sp needed
 149 007c 90BD     		pop	{r4, r7, pc}
 150              	.L7:
 151 007e C046     		.align	2
 152              	.L6:
 153 0080 70000F40 		.word	1074724976
 154 0084 90000F40 		.word	1074725008
 155              		.cfi_endproc
 156              	.LFE3:
 157              		.size	PWM_1_Init, .-PWM_1_Init
 158              		.section	.text.PWM_1_Enable,"ax",%progbits
 159              		.align	2
 160              		.global	PWM_1_Enable
 161              		.code	16
 162              		.thumb_func
 163              		.type	PWM_1_Enable, %function
ARM GAS  C:\Users\jsing\AppData\Local\Temp\ccbWMv7t.s 			page 7


 164              	PWM_1_Enable:
 165              	.LFB4:
 180:.\Generated_Source\PSoC4/PWM_1.c **** 
 181:.\Generated_Source\PSoC4/PWM_1.c **** 
 182:.\Generated_Source\PSoC4/PWM_1.c **** /*******************************************************************************
 183:.\Generated_Source\PSoC4/PWM_1.c **** * Function Name: PWM_1_Enable
 184:.\Generated_Source\PSoC4/PWM_1.c **** ********************************************************************************
 185:.\Generated_Source\PSoC4/PWM_1.c **** *
 186:.\Generated_Source\PSoC4/PWM_1.c **** * Summary:
 187:.\Generated_Source\PSoC4/PWM_1.c **** *  Enables the PWM block operation
 188:.\Generated_Source\PSoC4/PWM_1.c **** *
 189:.\Generated_Source\PSoC4/PWM_1.c **** * Parameters:
 190:.\Generated_Source\PSoC4/PWM_1.c **** *  None
 191:.\Generated_Source\PSoC4/PWM_1.c **** *
 192:.\Generated_Source\PSoC4/PWM_1.c **** * Return:
 193:.\Generated_Source\PSoC4/PWM_1.c **** *  None
 194:.\Generated_Source\PSoC4/PWM_1.c **** *
 195:.\Generated_Source\PSoC4/PWM_1.c **** * Side Effects:
 196:.\Generated_Source\PSoC4/PWM_1.c **** *  This works only if software enable mode is chosen
 197:.\Generated_Source\PSoC4/PWM_1.c **** *
 198:.\Generated_Source\PSoC4/PWM_1.c **** *******************************************************************************/
 199:.\Generated_Source\PSoC4/PWM_1.c **** void PWM_1_Enable(void) 
 200:.\Generated_Source\PSoC4/PWM_1.c **** {
 166              		.loc 1 200 0
 167              		.cfi_startproc
 168 0000 80B5     		push	{r7, lr}
 169              		.cfi_def_cfa_offset 8
 170              		.cfi_offset 7, -8
 171              		.cfi_offset 14, -4
 172 0002 00AF     		add	r7, sp, #0
 173              		.cfi_def_cfa_register 7
 201:.\Generated_Source\PSoC4/PWM_1.c ****     /* Globally Enable the Fixed Function Block chosen */
 202:.\Generated_Source\PSoC4/PWM_1.c ****     #if (PWM_1_UsingFixedFunction)
 203:.\Generated_Source\PSoC4/PWM_1.c ****         PWM_1_GLOBAL_ENABLE |= PWM_1_BLOCK_EN_MASK;
 204:.\Generated_Source\PSoC4/PWM_1.c ****         PWM_1_GLOBAL_STBY_ENABLE |= PWM_1_BLOCK_STBY_EN_MASK;
 205:.\Generated_Source\PSoC4/PWM_1.c ****     #endif /* (PWM_1_UsingFixedFunction) */
 206:.\Generated_Source\PSoC4/PWM_1.c **** 
 207:.\Generated_Source\PSoC4/PWM_1.c ****     /* Enable the PWM from the control register  */
 208:.\Generated_Source\PSoC4/PWM_1.c ****     #if (PWM_1_UseControl || PWM_1_UsingFixedFunction)
 209:.\Generated_Source\PSoC4/PWM_1.c ****         PWM_1_CONTROL |= PWM_1_CTRL_ENABLE;
 174              		.loc 1 209 0
 175 0004 054B     		ldr	r3, .L9
 176 0006 054A     		ldr	r2, .L9
 177 0008 1278     		ldrb	r2, [r2]
 178 000a D2B2     		uxtb	r2, r2
 179 000c 8021     		mov	r1, #128
 180 000e 4942     		neg	r1, r1
 181 0010 0A43     		orr	r2, r1
 182 0012 D2B2     		uxtb	r2, r2
 183 0014 1A70     		strb	r2, [r3]
 210:.\Generated_Source\PSoC4/PWM_1.c ****     #endif /* (PWM_1_UseControl || PWM_1_UsingFixedFunction) */
 211:.\Generated_Source\PSoC4/PWM_1.c **** }
 184              		.loc 1 211 0
 185 0016 BD46     		mov	sp, r7
 186              		@ sp needed
 187 0018 80BD     		pop	{r7, pc}
 188              	.L10:
ARM GAS  C:\Users\jsing\AppData\Local\Temp\ccbWMv7t.s 			page 8


 189 001a C046     		.align	2
 190              	.L9:
 191 001c 70000F40 		.word	1074724976
 192              		.cfi_endproc
 193              	.LFE4:
 194              		.size	PWM_1_Enable, .-PWM_1_Enable
 195              		.section	.text.PWM_1_Stop,"ax",%progbits
 196              		.align	2
 197              		.global	PWM_1_Stop
 198              		.code	16
 199              		.thumb_func
 200              		.type	PWM_1_Stop, %function
 201              	PWM_1_Stop:
 202              	.LFB5:
 212:.\Generated_Source\PSoC4/PWM_1.c **** 
 213:.\Generated_Source\PSoC4/PWM_1.c **** 
 214:.\Generated_Source\PSoC4/PWM_1.c **** /*******************************************************************************
 215:.\Generated_Source\PSoC4/PWM_1.c **** * Function Name: PWM_1_Stop
 216:.\Generated_Source\PSoC4/PWM_1.c **** ********************************************************************************
 217:.\Generated_Source\PSoC4/PWM_1.c **** *
 218:.\Generated_Source\PSoC4/PWM_1.c **** * Summary:
 219:.\Generated_Source\PSoC4/PWM_1.c **** *  The stop function halts the PWM, but does not change any modes or disable
 220:.\Generated_Source\PSoC4/PWM_1.c **** *  interrupts.
 221:.\Generated_Source\PSoC4/PWM_1.c **** *
 222:.\Generated_Source\PSoC4/PWM_1.c **** * Parameters:
 223:.\Generated_Source\PSoC4/PWM_1.c **** *  None
 224:.\Generated_Source\PSoC4/PWM_1.c **** *
 225:.\Generated_Source\PSoC4/PWM_1.c **** * Return:
 226:.\Generated_Source\PSoC4/PWM_1.c **** *  None
 227:.\Generated_Source\PSoC4/PWM_1.c **** *
 228:.\Generated_Source\PSoC4/PWM_1.c **** * Side Effects:
 229:.\Generated_Source\PSoC4/PWM_1.c **** *  If the Enable mode is set to Hardware only then this function
 230:.\Generated_Source\PSoC4/PWM_1.c **** *  has no effect on the operation of the PWM
 231:.\Generated_Source\PSoC4/PWM_1.c **** *
 232:.\Generated_Source\PSoC4/PWM_1.c **** *******************************************************************************/
 233:.\Generated_Source\PSoC4/PWM_1.c **** void PWM_1_Stop(void) 
 234:.\Generated_Source\PSoC4/PWM_1.c **** {
 203              		.loc 1 234 0
 204              		.cfi_startproc
 205 0000 80B5     		push	{r7, lr}
 206              		.cfi_def_cfa_offset 8
 207              		.cfi_offset 7, -8
 208              		.cfi_offset 14, -4
 209 0002 00AF     		add	r7, sp, #0
 210              		.cfi_def_cfa_register 7
 235:.\Generated_Source\PSoC4/PWM_1.c ****     #if (PWM_1_UseControl || PWM_1_UsingFixedFunction)
 236:.\Generated_Source\PSoC4/PWM_1.c ****         PWM_1_CONTROL &= ((uint8)(~PWM_1_CTRL_ENABLE));
 211              		.loc 1 236 0
 212 0004 044B     		ldr	r3, .L12
 213 0006 044A     		ldr	r2, .L12
 214 0008 1278     		ldrb	r2, [r2]
 215 000a D1B2     		uxtb	r1, r2
 216 000c 7F22     		mov	r2, #127
 217 000e 0A40     		and	r2, r1
 218 0010 D2B2     		uxtb	r2, r2
 219 0012 1A70     		strb	r2, [r3]
 237:.\Generated_Source\PSoC4/PWM_1.c ****     #endif /* (PWM_1_UseControl || PWM_1_UsingFixedFunction) */
ARM GAS  C:\Users\jsing\AppData\Local\Temp\ccbWMv7t.s 			page 9


 238:.\Generated_Source\PSoC4/PWM_1.c **** 
 239:.\Generated_Source\PSoC4/PWM_1.c ****     /* Globally disable the Fixed Function Block chosen */
 240:.\Generated_Source\PSoC4/PWM_1.c ****     #if (PWM_1_UsingFixedFunction)
 241:.\Generated_Source\PSoC4/PWM_1.c ****         PWM_1_GLOBAL_ENABLE &= ((uint8)(~PWM_1_BLOCK_EN_MASK));
 242:.\Generated_Source\PSoC4/PWM_1.c ****         PWM_1_GLOBAL_STBY_ENABLE &= ((uint8)(~PWM_1_BLOCK_STBY_EN_MASK));
 243:.\Generated_Source\PSoC4/PWM_1.c ****     #endif /* (PWM_1_UsingFixedFunction) */
 244:.\Generated_Source\PSoC4/PWM_1.c **** }
 220              		.loc 1 244 0
 221 0014 BD46     		mov	sp, r7
 222              		@ sp needed
 223 0016 80BD     		pop	{r7, pc}
 224              	.L13:
 225              		.align	2
 226              	.L12:
 227 0018 70000F40 		.word	1074724976
 228              		.cfi_endproc
 229              	.LFE5:
 230              		.size	PWM_1_Stop, .-PWM_1_Stop
 231              		.section	.text.PWM_1_WriteCounter,"ax",%progbits
 232              		.align	2
 233              		.global	PWM_1_WriteCounter
 234              		.code	16
 235              		.thumb_func
 236              		.type	PWM_1_WriteCounter, %function
 237              	PWM_1_WriteCounter:
 238              	.LFB6:
 245:.\Generated_Source\PSoC4/PWM_1.c **** 
 246:.\Generated_Source\PSoC4/PWM_1.c **** #if (PWM_1_UseOneCompareMode)
 247:.\Generated_Source\PSoC4/PWM_1.c ****     #if (PWM_1_CompareMode1SW)
 248:.\Generated_Source\PSoC4/PWM_1.c **** 
 249:.\Generated_Source\PSoC4/PWM_1.c **** 
 250:.\Generated_Source\PSoC4/PWM_1.c ****         /*******************************************************************************
 251:.\Generated_Source\PSoC4/PWM_1.c ****         * Function Name: PWM_1_SetCompareMode
 252:.\Generated_Source\PSoC4/PWM_1.c ****         ********************************************************************************
 253:.\Generated_Source\PSoC4/PWM_1.c ****         *
 254:.\Generated_Source\PSoC4/PWM_1.c ****         * Summary:
 255:.\Generated_Source\PSoC4/PWM_1.c ****         *  This function writes the Compare Mode for the pwm output when in Dither mode,
 256:.\Generated_Source\PSoC4/PWM_1.c ****         *  Center Align Mode or One Output Mode.
 257:.\Generated_Source\PSoC4/PWM_1.c ****         *
 258:.\Generated_Source\PSoC4/PWM_1.c ****         * Parameters:
 259:.\Generated_Source\PSoC4/PWM_1.c ****         *  comparemode:  The new compare mode for the PWM output. Use the compare types
 260:.\Generated_Source\PSoC4/PWM_1.c ****         *                defined in the H file as input arguments.
 261:.\Generated_Source\PSoC4/PWM_1.c ****         *
 262:.\Generated_Source\PSoC4/PWM_1.c ****         * Return:
 263:.\Generated_Source\PSoC4/PWM_1.c ****         *  None
 264:.\Generated_Source\PSoC4/PWM_1.c ****         *
 265:.\Generated_Source\PSoC4/PWM_1.c ****         *******************************************************************************/
 266:.\Generated_Source\PSoC4/PWM_1.c ****         void PWM_1_SetCompareMode(uint8 comparemode) 
 267:.\Generated_Source\PSoC4/PWM_1.c ****         {
 268:.\Generated_Source\PSoC4/PWM_1.c ****             #if(PWM_1_UsingFixedFunction)
 269:.\Generated_Source\PSoC4/PWM_1.c **** 
 270:.\Generated_Source\PSoC4/PWM_1.c ****                 #if(0 != PWM_1_CTRL_CMPMODE1_SHIFT)
 271:.\Generated_Source\PSoC4/PWM_1.c ****                     uint8 comparemodemasked = ((uint8)((uint8)comparemode << PWM_1_CTRL_CMPMODE1_SH
 272:.\Generated_Source\PSoC4/PWM_1.c ****                 #else
 273:.\Generated_Source\PSoC4/PWM_1.c ****                     uint8 comparemodemasked = comparemode;
 274:.\Generated_Source\PSoC4/PWM_1.c ****                 #endif /* (0 != PWM_1_CTRL_CMPMODE1_SHIFT) */
 275:.\Generated_Source\PSoC4/PWM_1.c **** 
ARM GAS  C:\Users\jsing\AppData\Local\Temp\ccbWMv7t.s 			page 10


 276:.\Generated_Source\PSoC4/PWM_1.c ****                 PWM_1_CONTROL3 &= ((uint8)(~PWM_1_CTRL_CMPMODE1_MASK)); /*Clear Existing Data */
 277:.\Generated_Source\PSoC4/PWM_1.c ****                 PWM_1_CONTROL3 |= comparemodemasked;
 278:.\Generated_Source\PSoC4/PWM_1.c **** 
 279:.\Generated_Source\PSoC4/PWM_1.c ****             #elif (PWM_1_UseControl)
 280:.\Generated_Source\PSoC4/PWM_1.c **** 
 281:.\Generated_Source\PSoC4/PWM_1.c ****                 #if(0 != PWM_1_CTRL_CMPMODE1_SHIFT)
 282:.\Generated_Source\PSoC4/PWM_1.c ****                     uint8 comparemode1masked = ((uint8)((uint8)comparemode << PWM_1_CTRL_CMPMODE1_S
 283:.\Generated_Source\PSoC4/PWM_1.c ****                                                 PWM_1_CTRL_CMPMODE1_MASK;
 284:.\Generated_Source\PSoC4/PWM_1.c ****                 #else
 285:.\Generated_Source\PSoC4/PWM_1.c ****                     uint8 comparemode1masked = comparemode & PWM_1_CTRL_CMPMODE1_MASK;
 286:.\Generated_Source\PSoC4/PWM_1.c ****                 #endif /* (0 != PWM_1_CTRL_CMPMODE1_SHIFT) */
 287:.\Generated_Source\PSoC4/PWM_1.c **** 
 288:.\Generated_Source\PSoC4/PWM_1.c ****                 #if(0 != PWM_1_CTRL_CMPMODE2_SHIFT)
 289:.\Generated_Source\PSoC4/PWM_1.c ****                     uint8 comparemode2masked = ((uint8)((uint8)comparemode << PWM_1_CTRL_CMPMODE2_S
 290:.\Generated_Source\PSoC4/PWM_1.c ****                                                PWM_1_CTRL_CMPMODE2_MASK;
 291:.\Generated_Source\PSoC4/PWM_1.c ****                 #else
 292:.\Generated_Source\PSoC4/PWM_1.c ****                     uint8 comparemode2masked = comparemode & PWM_1_CTRL_CMPMODE2_MASK;
 293:.\Generated_Source\PSoC4/PWM_1.c ****                 #endif /* (0 != PWM_1_CTRL_CMPMODE2_SHIFT) */
 294:.\Generated_Source\PSoC4/PWM_1.c **** 
 295:.\Generated_Source\PSoC4/PWM_1.c ****                 /*Clear existing mode */
 296:.\Generated_Source\PSoC4/PWM_1.c ****                 PWM_1_CONTROL &= ((uint8)(~(PWM_1_CTRL_CMPMODE1_MASK |
 297:.\Generated_Source\PSoC4/PWM_1.c ****                                             PWM_1_CTRL_CMPMODE2_MASK)));
 298:.\Generated_Source\PSoC4/PWM_1.c ****                 PWM_1_CONTROL |= (comparemode1masked | comparemode2masked);
 299:.\Generated_Source\PSoC4/PWM_1.c **** 
 300:.\Generated_Source\PSoC4/PWM_1.c ****             #else
 301:.\Generated_Source\PSoC4/PWM_1.c ****                 uint8 temp = comparemode;
 302:.\Generated_Source\PSoC4/PWM_1.c ****             #endif /* (PWM_1_UsingFixedFunction) */
 303:.\Generated_Source\PSoC4/PWM_1.c ****         }
 304:.\Generated_Source\PSoC4/PWM_1.c ****     #endif /* PWM_1_CompareMode1SW */
 305:.\Generated_Source\PSoC4/PWM_1.c **** 
 306:.\Generated_Source\PSoC4/PWM_1.c **** #else /* UseOneCompareMode */
 307:.\Generated_Source\PSoC4/PWM_1.c **** 
 308:.\Generated_Source\PSoC4/PWM_1.c ****     #if (PWM_1_CompareMode1SW)
 309:.\Generated_Source\PSoC4/PWM_1.c **** 
 310:.\Generated_Source\PSoC4/PWM_1.c **** 
 311:.\Generated_Source\PSoC4/PWM_1.c ****         /*******************************************************************************
 312:.\Generated_Source\PSoC4/PWM_1.c ****         * Function Name: PWM_1_SetCompareMode1
 313:.\Generated_Source\PSoC4/PWM_1.c ****         ********************************************************************************
 314:.\Generated_Source\PSoC4/PWM_1.c ****         *
 315:.\Generated_Source\PSoC4/PWM_1.c ****         * Summary:
 316:.\Generated_Source\PSoC4/PWM_1.c ****         *  This function writes the Compare Mode for the pwm or pwm1 output
 317:.\Generated_Source\PSoC4/PWM_1.c ****         *
 318:.\Generated_Source\PSoC4/PWM_1.c ****         * Parameters:
 319:.\Generated_Source\PSoC4/PWM_1.c ****         *  comparemode:  The new compare mode for the PWM output. Use the compare types
 320:.\Generated_Source\PSoC4/PWM_1.c ****         *                defined in the H file as input arguments.
 321:.\Generated_Source\PSoC4/PWM_1.c ****         *
 322:.\Generated_Source\PSoC4/PWM_1.c ****         * Return:
 323:.\Generated_Source\PSoC4/PWM_1.c ****         *  None
 324:.\Generated_Source\PSoC4/PWM_1.c ****         *
 325:.\Generated_Source\PSoC4/PWM_1.c ****         *******************************************************************************/
 326:.\Generated_Source\PSoC4/PWM_1.c ****         void PWM_1_SetCompareMode1(uint8 comparemode) 
 327:.\Generated_Source\PSoC4/PWM_1.c ****         {
 328:.\Generated_Source\PSoC4/PWM_1.c ****             #if(0 != PWM_1_CTRL_CMPMODE1_SHIFT)
 329:.\Generated_Source\PSoC4/PWM_1.c ****                 uint8 comparemodemasked = ((uint8)((uint8)comparemode << PWM_1_CTRL_CMPMODE1_SHIFT)
 330:.\Generated_Source\PSoC4/PWM_1.c ****                                            PWM_1_CTRL_CMPMODE1_MASK;
 331:.\Generated_Source\PSoC4/PWM_1.c ****             #else
 332:.\Generated_Source\PSoC4/PWM_1.c ****                 uint8 comparemodemasked = comparemode & PWM_1_CTRL_CMPMODE1_MASK;
ARM GAS  C:\Users\jsing\AppData\Local\Temp\ccbWMv7t.s 			page 11


 333:.\Generated_Source\PSoC4/PWM_1.c ****             #endif /* (0 != PWM_1_CTRL_CMPMODE1_SHIFT) */
 334:.\Generated_Source\PSoC4/PWM_1.c **** 
 335:.\Generated_Source\PSoC4/PWM_1.c ****             #if (PWM_1_UseControl)
 336:.\Generated_Source\PSoC4/PWM_1.c ****                 PWM_1_CONTROL &= ((uint8)(~PWM_1_CTRL_CMPMODE1_MASK)); /*Clear existing mode */
 337:.\Generated_Source\PSoC4/PWM_1.c ****                 PWM_1_CONTROL |= comparemodemasked;
 338:.\Generated_Source\PSoC4/PWM_1.c ****             #endif /* (PWM_1_UseControl) */
 339:.\Generated_Source\PSoC4/PWM_1.c ****         }
 340:.\Generated_Source\PSoC4/PWM_1.c ****     #endif /* PWM_1_CompareMode1SW */
 341:.\Generated_Source\PSoC4/PWM_1.c **** 
 342:.\Generated_Source\PSoC4/PWM_1.c **** #if (PWM_1_CompareMode2SW)
 343:.\Generated_Source\PSoC4/PWM_1.c **** 
 344:.\Generated_Source\PSoC4/PWM_1.c **** 
 345:.\Generated_Source\PSoC4/PWM_1.c ****     /*******************************************************************************
 346:.\Generated_Source\PSoC4/PWM_1.c ****     * Function Name: PWM_1_SetCompareMode2
 347:.\Generated_Source\PSoC4/PWM_1.c ****     ********************************************************************************
 348:.\Generated_Source\PSoC4/PWM_1.c ****     *
 349:.\Generated_Source\PSoC4/PWM_1.c ****     * Summary:
 350:.\Generated_Source\PSoC4/PWM_1.c ****     *  This function writes the Compare Mode for the pwm or pwm2 output
 351:.\Generated_Source\PSoC4/PWM_1.c ****     *
 352:.\Generated_Source\PSoC4/PWM_1.c ****     * Parameters:
 353:.\Generated_Source\PSoC4/PWM_1.c ****     *  comparemode:  The new compare mode for the PWM output. Use the compare types
 354:.\Generated_Source\PSoC4/PWM_1.c ****     *                defined in the H file as input arguments.
 355:.\Generated_Source\PSoC4/PWM_1.c ****     *
 356:.\Generated_Source\PSoC4/PWM_1.c ****     * Return:
 357:.\Generated_Source\PSoC4/PWM_1.c ****     *  None
 358:.\Generated_Source\PSoC4/PWM_1.c ****     *
 359:.\Generated_Source\PSoC4/PWM_1.c ****     *******************************************************************************/
 360:.\Generated_Source\PSoC4/PWM_1.c ****     void PWM_1_SetCompareMode2(uint8 comparemode) 
 361:.\Generated_Source\PSoC4/PWM_1.c ****     {
 362:.\Generated_Source\PSoC4/PWM_1.c **** 
 363:.\Generated_Source\PSoC4/PWM_1.c ****         #if(0 != PWM_1_CTRL_CMPMODE2_SHIFT)
 364:.\Generated_Source\PSoC4/PWM_1.c ****             uint8 comparemodemasked = ((uint8)((uint8)comparemode << PWM_1_CTRL_CMPMODE2_SHIFT)) &
 365:.\Generated_Source\PSoC4/PWM_1.c ****                                                  PWM_1_CTRL_CMPMODE2_MASK;
 366:.\Generated_Source\PSoC4/PWM_1.c ****         #else
 367:.\Generated_Source\PSoC4/PWM_1.c ****             uint8 comparemodemasked = comparemode & PWM_1_CTRL_CMPMODE2_MASK;
 368:.\Generated_Source\PSoC4/PWM_1.c ****         #endif /* (0 != PWM_1_CTRL_CMPMODE2_SHIFT) */
 369:.\Generated_Source\PSoC4/PWM_1.c **** 
 370:.\Generated_Source\PSoC4/PWM_1.c ****         #if (PWM_1_UseControl)
 371:.\Generated_Source\PSoC4/PWM_1.c ****             PWM_1_CONTROL &= ((uint8)(~PWM_1_CTRL_CMPMODE2_MASK)); /*Clear existing mode */
 372:.\Generated_Source\PSoC4/PWM_1.c ****             PWM_1_CONTROL |= comparemodemasked;
 373:.\Generated_Source\PSoC4/PWM_1.c ****         #endif /* (PWM_1_UseControl) */
 374:.\Generated_Source\PSoC4/PWM_1.c ****     }
 375:.\Generated_Source\PSoC4/PWM_1.c ****     #endif /*PWM_1_CompareMode2SW */
 376:.\Generated_Source\PSoC4/PWM_1.c **** 
 377:.\Generated_Source\PSoC4/PWM_1.c **** #endif /* UseOneCompareMode */
 378:.\Generated_Source\PSoC4/PWM_1.c **** 
 379:.\Generated_Source\PSoC4/PWM_1.c **** 
 380:.\Generated_Source\PSoC4/PWM_1.c **** #if (!PWM_1_UsingFixedFunction)
 381:.\Generated_Source\PSoC4/PWM_1.c **** 
 382:.\Generated_Source\PSoC4/PWM_1.c **** 
 383:.\Generated_Source\PSoC4/PWM_1.c ****     /*******************************************************************************
 384:.\Generated_Source\PSoC4/PWM_1.c ****     * Function Name: PWM_1_WriteCounter
 385:.\Generated_Source\PSoC4/PWM_1.c ****     ********************************************************************************
 386:.\Generated_Source\PSoC4/PWM_1.c ****     *
 387:.\Generated_Source\PSoC4/PWM_1.c ****     * Summary:
 388:.\Generated_Source\PSoC4/PWM_1.c ****     *  Writes a new counter value directly to the counter register. This will be
 389:.\Generated_Source\PSoC4/PWM_1.c ****     *  implemented for that currently running period and only that period. This API
ARM GAS  C:\Users\jsing\AppData\Local\Temp\ccbWMv7t.s 			page 12


 390:.\Generated_Source\PSoC4/PWM_1.c ****     *  is valid only for UDB implementation and not available for fixed function
 391:.\Generated_Source\PSoC4/PWM_1.c ****     *  PWM implementation.
 392:.\Generated_Source\PSoC4/PWM_1.c ****     *
 393:.\Generated_Source\PSoC4/PWM_1.c ****     * Parameters:
 394:.\Generated_Source\PSoC4/PWM_1.c ****     *  counter:  The period new period counter value.
 395:.\Generated_Source\PSoC4/PWM_1.c ****     *
 396:.\Generated_Source\PSoC4/PWM_1.c ****     * Return:
 397:.\Generated_Source\PSoC4/PWM_1.c ****     *  None
 398:.\Generated_Source\PSoC4/PWM_1.c ****     *
 399:.\Generated_Source\PSoC4/PWM_1.c ****     * Side Effects:
 400:.\Generated_Source\PSoC4/PWM_1.c ****     *  The PWM Period will be reloaded when a counter value will be a zero
 401:.\Generated_Source\PSoC4/PWM_1.c ****     *
 402:.\Generated_Source\PSoC4/PWM_1.c ****     *******************************************************************************/
 403:.\Generated_Source\PSoC4/PWM_1.c ****     void PWM_1_WriteCounter(uint8 counter) \
 404:.\Generated_Source\PSoC4/PWM_1.c ****                                        
 405:.\Generated_Source\PSoC4/PWM_1.c ****     {
 239              		.loc 1 405 0
 240              		.cfi_startproc
 241 0000 80B5     		push	{r7, lr}
 242              		.cfi_def_cfa_offset 8
 243              		.cfi_offset 7, -8
 244              		.cfi_offset 14, -4
 245 0002 82B0     		sub	sp, sp, #8
 246              		.cfi_def_cfa_offset 16
 247 0004 00AF     		add	r7, sp, #0
 248              		.cfi_def_cfa_register 7
 249 0006 021C     		mov	r2, r0
 250 0008 FB1D     		add	r3, r7, #7
 251 000a 1A70     		strb	r2, [r3]
 406:.\Generated_Source\PSoC4/PWM_1.c ****         CY_SET_REG8(PWM_1_COUNTER_LSB_PTR, counter);
 252              		.loc 1 406 0
 253 000c 034B     		ldr	r3, .L15
 254 000e FA1D     		add	r2, r7, #7
 255 0010 1278     		ldrb	r2, [r2]
 256 0012 1A70     		strb	r2, [r3]
 407:.\Generated_Source\PSoC4/PWM_1.c ****     }
 257              		.loc 1 407 0
 258 0014 BD46     		mov	sp, r7
 259 0016 02B0     		add	sp, sp, #8
 260              		@ sp needed
 261 0018 80BD     		pop	{r7, pc}
 262              	.L16:
 263 001a C046     		.align	2
 264              	.L15:
 265 001c 00000F40 		.word	1074724864
 266              		.cfi_endproc
 267              	.LFE6:
 268              		.size	PWM_1_WriteCounter, .-PWM_1_WriteCounter
 269              		.section	.text.PWM_1_ReadCounter,"ax",%progbits
 270              		.align	2
 271              		.global	PWM_1_ReadCounter
 272              		.code	16
 273              		.thumb_func
 274              		.type	PWM_1_ReadCounter, %function
 275              	PWM_1_ReadCounter:
 276              	.LFB7:
 408:.\Generated_Source\PSoC4/PWM_1.c **** 
ARM GAS  C:\Users\jsing\AppData\Local\Temp\ccbWMv7t.s 			page 13


 409:.\Generated_Source\PSoC4/PWM_1.c **** 
 410:.\Generated_Source\PSoC4/PWM_1.c ****     /*******************************************************************************
 411:.\Generated_Source\PSoC4/PWM_1.c ****     * Function Name: PWM_1_ReadCounter
 412:.\Generated_Source\PSoC4/PWM_1.c ****     ********************************************************************************
 413:.\Generated_Source\PSoC4/PWM_1.c ****     *
 414:.\Generated_Source\PSoC4/PWM_1.c ****     * Summary:
 415:.\Generated_Source\PSoC4/PWM_1.c ****     *  This function returns the current value of the counter.  It doesn't matter
 416:.\Generated_Source\PSoC4/PWM_1.c ****     *  if the counter is enabled or running.
 417:.\Generated_Source\PSoC4/PWM_1.c ****     *
 418:.\Generated_Source\PSoC4/PWM_1.c ****     * Parameters:
 419:.\Generated_Source\PSoC4/PWM_1.c ****     *  None
 420:.\Generated_Source\PSoC4/PWM_1.c ****     *
 421:.\Generated_Source\PSoC4/PWM_1.c ****     * Return:
 422:.\Generated_Source\PSoC4/PWM_1.c ****     *  The current value of the counter.
 423:.\Generated_Source\PSoC4/PWM_1.c ****     *
 424:.\Generated_Source\PSoC4/PWM_1.c ****     *******************************************************************************/
 425:.\Generated_Source\PSoC4/PWM_1.c ****     uint8 PWM_1_ReadCounter(void) 
 426:.\Generated_Source\PSoC4/PWM_1.c ****     {
 277              		.loc 1 426 0
 278              		.cfi_startproc
 279 0000 80B5     		push	{r7, lr}
 280              		.cfi_def_cfa_offset 8
 281              		.cfi_offset 7, -8
 282              		.cfi_offset 14, -4
 283 0002 00AF     		add	r7, sp, #0
 284              		.cfi_def_cfa_register 7
 427:.\Generated_Source\PSoC4/PWM_1.c ****         /* Force capture by reading Accumulator */
 428:.\Generated_Source\PSoC4/PWM_1.c ****         /* Must first do a software capture to be able to read the counter */
 429:.\Generated_Source\PSoC4/PWM_1.c ****         /* It is up to the user code to make sure there isn't already captured data in the FIFO */
 430:.\Generated_Source\PSoC4/PWM_1.c ****           (void)CY_GET_REG8(PWM_1_COUNTERCAP_LSB_PTR_8BIT);
 285              		.loc 1 430 0
 286 0004 034B     		ldr	r3, .L19
 287 0006 1B78     		ldrb	r3, [r3]
 431:.\Generated_Source\PSoC4/PWM_1.c **** 
 432:.\Generated_Source\PSoC4/PWM_1.c ****         /* Read the data from the FIFO */
 433:.\Generated_Source\PSoC4/PWM_1.c ****         return (CY_GET_REG8(PWM_1_CAPTURE_LSB_PTR));
 288              		.loc 1 433 0
 289 0008 034B     		ldr	r3, .L19+4
 290 000a 1B78     		ldrb	r3, [r3]
 291 000c DBB2     		uxtb	r3, r3
 434:.\Generated_Source\PSoC4/PWM_1.c ****     }
 292              		.loc 1 434 0
 293 000e 181C     		mov	r0, r3
 294 0010 BD46     		mov	sp, r7
 295              		@ sp needed
 296 0012 80BD     		pop	{r7, pc}
 297              	.L20:
 298              		.align	2
 299              	.L19:
 300 0014 10000F40 		.word	1074724880
 301 0018 50000F40 		.word	1074724944
 302              		.cfi_endproc
 303              	.LFE7:
 304              		.size	PWM_1_ReadCounter, .-PWM_1_ReadCounter
 305              		.section	.text.PWM_1_ClearFIFO,"ax",%progbits
 306              		.align	2
 307              		.global	PWM_1_ClearFIFO
ARM GAS  C:\Users\jsing\AppData\Local\Temp\ccbWMv7t.s 			page 14


 308              		.code	16
 309              		.thumb_func
 310              		.type	PWM_1_ClearFIFO, %function
 311              	PWM_1_ClearFIFO:
 312              	.LFB8:
 435:.\Generated_Source\PSoC4/PWM_1.c **** 
 436:.\Generated_Source\PSoC4/PWM_1.c ****     #if (PWM_1_UseStatus)
 437:.\Generated_Source\PSoC4/PWM_1.c **** 
 438:.\Generated_Source\PSoC4/PWM_1.c **** 
 439:.\Generated_Source\PSoC4/PWM_1.c ****         /*******************************************************************************
 440:.\Generated_Source\PSoC4/PWM_1.c ****         * Function Name: PWM_1_ClearFIFO
 441:.\Generated_Source\PSoC4/PWM_1.c ****         ********************************************************************************
 442:.\Generated_Source\PSoC4/PWM_1.c ****         *
 443:.\Generated_Source\PSoC4/PWM_1.c ****         * Summary:
 444:.\Generated_Source\PSoC4/PWM_1.c ****         *  This function clears all capture data from the capture FIFO
 445:.\Generated_Source\PSoC4/PWM_1.c ****         *
 446:.\Generated_Source\PSoC4/PWM_1.c ****         * Parameters:
 447:.\Generated_Source\PSoC4/PWM_1.c ****         *  None
 448:.\Generated_Source\PSoC4/PWM_1.c ****         *
 449:.\Generated_Source\PSoC4/PWM_1.c ****         * Return:
 450:.\Generated_Source\PSoC4/PWM_1.c ****         *  None
 451:.\Generated_Source\PSoC4/PWM_1.c ****         *
 452:.\Generated_Source\PSoC4/PWM_1.c ****         *******************************************************************************/
 453:.\Generated_Source\PSoC4/PWM_1.c ****         void PWM_1_ClearFIFO(void) 
 454:.\Generated_Source\PSoC4/PWM_1.c ****         {
 313              		.loc 1 454 0
 314              		.cfi_startproc
 315 0000 80B5     		push	{r7, lr}
 316              		.cfi_def_cfa_offset 8
 317              		.cfi_offset 7, -8
 318              		.cfi_offset 14, -4
 319 0002 00AF     		add	r7, sp, #0
 320              		.cfi_def_cfa_register 7
 455:.\Generated_Source\PSoC4/PWM_1.c ****             while(0u != (PWM_1_ReadStatusRegister() & PWM_1_STATUS_FIFONEMPTY))
 321              		.loc 1 455 0
 322 0004 01E0     		b	.L22
 323              	.L23:
 456:.\Generated_Source\PSoC4/PWM_1.c ****             {
 457:.\Generated_Source\PSoC4/PWM_1.c ****                 (void)PWM_1_ReadCapture();
 324              		.loc 1 457 0
 325 0006 FFF7FEFF 		bl	PWM_1_ReadCapture
 326              	.L22:
 455:.\Generated_Source\PSoC4/PWM_1.c ****             while(0u != (PWM_1_ReadStatusRegister() & PWM_1_STATUS_FIFONEMPTY))
 327              		.loc 1 455 0 discriminator 1
 328 000a FFF7FEFF 		bl	PWM_1_ReadStatusRegister
 329 000e 031C     		mov	r3, r0
 330 0010 1A1C     		mov	r2, r3
 331 0012 1023     		mov	r3, #16
 332 0014 1340     		and	r3, r2
 333 0016 F6D1     		bne	.L23
 458:.\Generated_Source\PSoC4/PWM_1.c ****             }
 459:.\Generated_Source\PSoC4/PWM_1.c ****         }
 334              		.loc 1 459 0
 335 0018 BD46     		mov	sp, r7
 336              		@ sp needed
 337 001a 80BD     		pop	{r7, pc}
 338              		.cfi_endproc
ARM GAS  C:\Users\jsing\AppData\Local\Temp\ccbWMv7t.s 			page 15


 339              	.LFE8:
 340              		.size	PWM_1_ClearFIFO, .-PWM_1_ClearFIFO
 341              		.section	.text.PWM_1_WritePeriod,"ax",%progbits
 342              		.align	2
 343              		.global	PWM_1_WritePeriod
 344              		.code	16
 345              		.thumb_func
 346              		.type	PWM_1_WritePeriod, %function
 347              	PWM_1_WritePeriod:
 348              	.LFB9:
 460:.\Generated_Source\PSoC4/PWM_1.c **** 
 461:.\Generated_Source\PSoC4/PWM_1.c ****     #endif /* PWM_1_UseStatus */
 462:.\Generated_Source\PSoC4/PWM_1.c **** 
 463:.\Generated_Source\PSoC4/PWM_1.c **** #endif /* !PWM_1_UsingFixedFunction */
 464:.\Generated_Source\PSoC4/PWM_1.c **** 
 465:.\Generated_Source\PSoC4/PWM_1.c **** 
 466:.\Generated_Source\PSoC4/PWM_1.c **** /*******************************************************************************
 467:.\Generated_Source\PSoC4/PWM_1.c **** * Function Name: PWM_1_WritePeriod
 468:.\Generated_Source\PSoC4/PWM_1.c **** ********************************************************************************
 469:.\Generated_Source\PSoC4/PWM_1.c **** *
 470:.\Generated_Source\PSoC4/PWM_1.c **** * Summary:
 471:.\Generated_Source\PSoC4/PWM_1.c **** *  This function is used to change the period of the counter.  The new period
 472:.\Generated_Source\PSoC4/PWM_1.c **** *  will be loaded the next time terminal count is detected.
 473:.\Generated_Source\PSoC4/PWM_1.c **** *
 474:.\Generated_Source\PSoC4/PWM_1.c **** * Parameters:
 475:.\Generated_Source\PSoC4/PWM_1.c **** *  period:  Period value. May be between 1 and (2^Resolution)-1.  A value of 0
 476:.\Generated_Source\PSoC4/PWM_1.c **** *           will result in the counter remaining at zero.
 477:.\Generated_Source\PSoC4/PWM_1.c **** *
 478:.\Generated_Source\PSoC4/PWM_1.c **** * Return:
 479:.\Generated_Source\PSoC4/PWM_1.c **** *  None
 480:.\Generated_Source\PSoC4/PWM_1.c **** *
 481:.\Generated_Source\PSoC4/PWM_1.c **** *******************************************************************************/
 482:.\Generated_Source\PSoC4/PWM_1.c **** void PWM_1_WritePeriod(uint8 period) 
 483:.\Generated_Source\PSoC4/PWM_1.c **** {
 349              		.loc 1 483 0
 350              		.cfi_startproc
 351 0000 80B5     		push	{r7, lr}
 352              		.cfi_def_cfa_offset 8
 353              		.cfi_offset 7, -8
 354              		.cfi_offset 14, -4
 355 0002 82B0     		sub	sp, sp, #8
 356              		.cfi_def_cfa_offset 16
 357 0004 00AF     		add	r7, sp, #0
 358              		.cfi_def_cfa_register 7
 359 0006 021C     		mov	r2, r0
 360 0008 FB1D     		add	r3, r7, #7
 361 000a 1A70     		strb	r2, [r3]
 484:.\Generated_Source\PSoC4/PWM_1.c ****     #if(PWM_1_UsingFixedFunction)
 485:.\Generated_Source\PSoC4/PWM_1.c ****         CY_SET_REG16(PWM_1_PERIOD_LSB_PTR, (uint16)period);
 486:.\Generated_Source\PSoC4/PWM_1.c ****     #else
 487:.\Generated_Source\PSoC4/PWM_1.c ****         CY_SET_REG8(PWM_1_PERIOD_LSB_PTR, period);
 362              		.loc 1 487 0
 363 000c 034B     		ldr	r3, .L25
 364 000e FA1D     		add	r2, r7, #7
 365 0010 1278     		ldrb	r2, [r2]
 366 0012 1A70     		strb	r2, [r3]
 488:.\Generated_Source\PSoC4/PWM_1.c ****     #endif /* (PWM_1_UsingFixedFunction) */
ARM GAS  C:\Users\jsing\AppData\Local\Temp\ccbWMv7t.s 			page 16


 489:.\Generated_Source\PSoC4/PWM_1.c **** }
 367              		.loc 1 489 0
 368 0014 BD46     		mov	sp, r7
 369 0016 02B0     		add	sp, sp, #8
 370              		@ sp needed
 371 0018 80BD     		pop	{r7, pc}
 372              	.L26:
 373 001a C046     		.align	2
 374              	.L25:
 375 001c 40000F40 		.word	1074724928
 376              		.cfi_endproc
 377              	.LFE9:
 378              		.size	PWM_1_WritePeriod, .-PWM_1_WritePeriod
 379              		.section	.text.PWM_1_WriteCompare1,"ax",%progbits
 380              		.align	2
 381              		.global	PWM_1_WriteCompare1
 382              		.code	16
 383              		.thumb_func
 384              		.type	PWM_1_WriteCompare1, %function
 385              	PWM_1_WriteCompare1:
 386              	.LFB10:
 490:.\Generated_Source\PSoC4/PWM_1.c **** 
 491:.\Generated_Source\PSoC4/PWM_1.c **** #if (PWM_1_UseOneCompareMode)
 492:.\Generated_Source\PSoC4/PWM_1.c **** 
 493:.\Generated_Source\PSoC4/PWM_1.c **** 
 494:.\Generated_Source\PSoC4/PWM_1.c ****     /*******************************************************************************
 495:.\Generated_Source\PSoC4/PWM_1.c ****     * Function Name: PWM_1_WriteCompare
 496:.\Generated_Source\PSoC4/PWM_1.c ****     ********************************************************************************
 497:.\Generated_Source\PSoC4/PWM_1.c ****     *
 498:.\Generated_Source\PSoC4/PWM_1.c ****     * Summary:
 499:.\Generated_Source\PSoC4/PWM_1.c ****     *  This funtion is used to change the compare1 value when the PWM is in Dither
 500:.\Generated_Source\PSoC4/PWM_1.c ****     *  mode. The compare output will reflect the new value on the next UDB clock.
 501:.\Generated_Source\PSoC4/PWM_1.c ****     *  The compare output will be driven high when the present counter value is
 502:.\Generated_Source\PSoC4/PWM_1.c ****     *  compared to the compare value based on the compare mode defined in
 503:.\Generated_Source\PSoC4/PWM_1.c ****     *  Dither Mode.
 504:.\Generated_Source\PSoC4/PWM_1.c ****     *
 505:.\Generated_Source\PSoC4/PWM_1.c ****     * Parameters:
 506:.\Generated_Source\PSoC4/PWM_1.c ****     *  compare:  New compare value.
 507:.\Generated_Source\PSoC4/PWM_1.c ****     *
 508:.\Generated_Source\PSoC4/PWM_1.c ****     * Return:
 509:.\Generated_Source\PSoC4/PWM_1.c ****     *  None
 510:.\Generated_Source\PSoC4/PWM_1.c ****     *
 511:.\Generated_Source\PSoC4/PWM_1.c ****     * Side Effects:
 512:.\Generated_Source\PSoC4/PWM_1.c ****     *  This function is only available if the PWM mode parameter is set to
 513:.\Generated_Source\PSoC4/PWM_1.c ****     *  Dither Mode, Center Aligned Mode or One Output Mode
 514:.\Generated_Source\PSoC4/PWM_1.c ****     *
 515:.\Generated_Source\PSoC4/PWM_1.c ****     *******************************************************************************/
 516:.\Generated_Source\PSoC4/PWM_1.c ****     void PWM_1_WriteCompare(uint8 compare) \
 517:.\Generated_Source\PSoC4/PWM_1.c ****                                        
 518:.\Generated_Source\PSoC4/PWM_1.c ****     {
 519:.\Generated_Source\PSoC4/PWM_1.c ****         #if(PWM_1_UsingFixedFunction)
 520:.\Generated_Source\PSoC4/PWM_1.c ****             CY_SET_REG16(PWM_1_COMPARE1_LSB_PTR, (uint16)compare);
 521:.\Generated_Source\PSoC4/PWM_1.c ****         #else
 522:.\Generated_Source\PSoC4/PWM_1.c ****             CY_SET_REG8(PWM_1_COMPARE1_LSB_PTR, compare);
 523:.\Generated_Source\PSoC4/PWM_1.c ****         #endif /* (PWM_1_UsingFixedFunction) */
 524:.\Generated_Source\PSoC4/PWM_1.c **** 
 525:.\Generated_Source\PSoC4/PWM_1.c ****         #if (PWM_1_PWMMode == PWM_1__B_PWM__DITHER)
ARM GAS  C:\Users\jsing\AppData\Local\Temp\ccbWMv7t.s 			page 17


 526:.\Generated_Source\PSoC4/PWM_1.c ****             #if(PWM_1_UsingFixedFunction)
 527:.\Generated_Source\PSoC4/PWM_1.c ****                 CY_SET_REG16(PWM_1_COMPARE2_LSB_PTR, (uint16)(compare + 1u));
 528:.\Generated_Source\PSoC4/PWM_1.c ****             #else
 529:.\Generated_Source\PSoC4/PWM_1.c ****                 CY_SET_REG8(PWM_1_COMPARE2_LSB_PTR, (compare + 1u));
 530:.\Generated_Source\PSoC4/PWM_1.c ****             #endif /* (PWM_1_UsingFixedFunction) */
 531:.\Generated_Source\PSoC4/PWM_1.c ****         #endif /* (PWM_1_PWMMode == PWM_1__B_PWM__DITHER) */
 532:.\Generated_Source\PSoC4/PWM_1.c ****     }
 533:.\Generated_Source\PSoC4/PWM_1.c **** 
 534:.\Generated_Source\PSoC4/PWM_1.c **** 
 535:.\Generated_Source\PSoC4/PWM_1.c **** #else
 536:.\Generated_Source\PSoC4/PWM_1.c **** 
 537:.\Generated_Source\PSoC4/PWM_1.c **** 
 538:.\Generated_Source\PSoC4/PWM_1.c ****     /*******************************************************************************
 539:.\Generated_Source\PSoC4/PWM_1.c ****     * Function Name: PWM_1_WriteCompare1
 540:.\Generated_Source\PSoC4/PWM_1.c ****     ********************************************************************************
 541:.\Generated_Source\PSoC4/PWM_1.c ****     *
 542:.\Generated_Source\PSoC4/PWM_1.c ****     * Summary:
 543:.\Generated_Source\PSoC4/PWM_1.c ****     *  This funtion is used to change the compare1 value.  The compare output will
 544:.\Generated_Source\PSoC4/PWM_1.c ****     *  reflect the new value on the next UDB clock.  The compare output will be
 545:.\Generated_Source\PSoC4/PWM_1.c ****     *  driven high when the present counter value is less than or less than or
 546:.\Generated_Source\PSoC4/PWM_1.c ****     *  equal to the compare register, depending on the mode.
 547:.\Generated_Source\PSoC4/PWM_1.c ****     *
 548:.\Generated_Source\PSoC4/PWM_1.c ****     * Parameters:
 549:.\Generated_Source\PSoC4/PWM_1.c ****     *  compare:  New compare value.
 550:.\Generated_Source\PSoC4/PWM_1.c ****     *
 551:.\Generated_Source\PSoC4/PWM_1.c ****     * Return:
 552:.\Generated_Source\PSoC4/PWM_1.c ****     *  None
 553:.\Generated_Source\PSoC4/PWM_1.c ****     *
 554:.\Generated_Source\PSoC4/PWM_1.c ****     *******************************************************************************/
 555:.\Generated_Source\PSoC4/PWM_1.c ****     void PWM_1_WriteCompare1(uint8 compare) \
 556:.\Generated_Source\PSoC4/PWM_1.c ****                                         
 557:.\Generated_Source\PSoC4/PWM_1.c ****     {
 387              		.loc 1 557 0
 388              		.cfi_startproc
 389 0000 80B5     		push	{r7, lr}
 390              		.cfi_def_cfa_offset 8
 391              		.cfi_offset 7, -8
 392              		.cfi_offset 14, -4
 393 0002 82B0     		sub	sp, sp, #8
 394              		.cfi_def_cfa_offset 16
 395 0004 00AF     		add	r7, sp, #0
 396              		.cfi_def_cfa_register 7
 397 0006 021C     		mov	r2, r0
 398 0008 FB1D     		add	r3, r7, #7
 399 000a 1A70     		strb	r2, [r3]
 558:.\Generated_Source\PSoC4/PWM_1.c ****         #if(PWM_1_UsingFixedFunction)
 559:.\Generated_Source\PSoC4/PWM_1.c ****             CY_SET_REG16(PWM_1_COMPARE1_LSB_PTR, (uint16)compare);
 560:.\Generated_Source\PSoC4/PWM_1.c ****         #else
 561:.\Generated_Source\PSoC4/PWM_1.c ****             CY_SET_REG8(PWM_1_COMPARE1_LSB_PTR, compare);
 400              		.loc 1 561 0
 401 000c 034B     		ldr	r3, .L28
 402 000e FA1D     		add	r2, r7, #7
 403 0010 1278     		ldrb	r2, [r2]
 404 0012 1A70     		strb	r2, [r3]
 562:.\Generated_Source\PSoC4/PWM_1.c ****         #endif /* (PWM_1_UsingFixedFunction) */
 563:.\Generated_Source\PSoC4/PWM_1.c ****     }
 405              		.loc 1 563 0
ARM GAS  C:\Users\jsing\AppData\Local\Temp\ccbWMv7t.s 			page 18


 406 0014 BD46     		mov	sp, r7
 407 0016 02B0     		add	sp, sp, #8
 408              		@ sp needed
 409 0018 80BD     		pop	{r7, pc}
 410              	.L29:
 411 001a C046     		.align	2
 412              	.L28:
 413 001c 20000F40 		.word	1074724896
 414              		.cfi_endproc
 415              	.LFE10:
 416              		.size	PWM_1_WriteCompare1, .-PWM_1_WriteCompare1
 417              		.section	.text.PWM_1_WriteCompare2,"ax",%progbits
 418              		.align	2
 419              		.global	PWM_1_WriteCompare2
 420              		.code	16
 421              		.thumb_func
 422              		.type	PWM_1_WriteCompare2, %function
 423              	PWM_1_WriteCompare2:
 424              	.LFB11:
 564:.\Generated_Source\PSoC4/PWM_1.c **** 
 565:.\Generated_Source\PSoC4/PWM_1.c **** 
 566:.\Generated_Source\PSoC4/PWM_1.c ****     /*******************************************************************************
 567:.\Generated_Source\PSoC4/PWM_1.c ****     * Function Name: PWM_1_WriteCompare2
 568:.\Generated_Source\PSoC4/PWM_1.c ****     ********************************************************************************
 569:.\Generated_Source\PSoC4/PWM_1.c ****     *
 570:.\Generated_Source\PSoC4/PWM_1.c ****     * Summary:
 571:.\Generated_Source\PSoC4/PWM_1.c ****     *  This funtion is used to change the compare value, for compare1 output.
 572:.\Generated_Source\PSoC4/PWM_1.c ****     *  The compare output will reflect the new value on the next UDB clock.
 573:.\Generated_Source\PSoC4/PWM_1.c ****     *  The compare output will be driven high when the present counter value is
 574:.\Generated_Source\PSoC4/PWM_1.c ****     *  less than or less than or equal to the compare register, depending on the
 575:.\Generated_Source\PSoC4/PWM_1.c ****     *  mode.
 576:.\Generated_Source\PSoC4/PWM_1.c ****     *
 577:.\Generated_Source\PSoC4/PWM_1.c ****     * Parameters:
 578:.\Generated_Source\PSoC4/PWM_1.c ****     *  compare:  New compare value.
 579:.\Generated_Source\PSoC4/PWM_1.c ****     *
 580:.\Generated_Source\PSoC4/PWM_1.c ****     * Return:
 581:.\Generated_Source\PSoC4/PWM_1.c ****     *  None
 582:.\Generated_Source\PSoC4/PWM_1.c ****     *
 583:.\Generated_Source\PSoC4/PWM_1.c ****     *******************************************************************************/
 584:.\Generated_Source\PSoC4/PWM_1.c ****     void PWM_1_WriteCompare2(uint8 compare) \
 585:.\Generated_Source\PSoC4/PWM_1.c ****                                         
 586:.\Generated_Source\PSoC4/PWM_1.c ****     {
 425              		.loc 1 586 0
 426              		.cfi_startproc
 427 0000 80B5     		push	{r7, lr}
 428              		.cfi_def_cfa_offset 8
 429              		.cfi_offset 7, -8
 430              		.cfi_offset 14, -4
 431 0002 82B0     		sub	sp, sp, #8
 432              		.cfi_def_cfa_offset 16
 433 0004 00AF     		add	r7, sp, #0
 434              		.cfi_def_cfa_register 7
 435 0006 021C     		mov	r2, r0
 436 0008 FB1D     		add	r3, r7, #7
 437 000a 1A70     		strb	r2, [r3]
 587:.\Generated_Source\PSoC4/PWM_1.c ****         #if(PWM_1_UsingFixedFunction)
 588:.\Generated_Source\PSoC4/PWM_1.c ****             CY_SET_REG16(PWM_1_COMPARE2_LSB_PTR, compare);
ARM GAS  C:\Users\jsing\AppData\Local\Temp\ccbWMv7t.s 			page 19


 589:.\Generated_Source\PSoC4/PWM_1.c ****         #else
 590:.\Generated_Source\PSoC4/PWM_1.c ****             CY_SET_REG8(PWM_1_COMPARE2_LSB_PTR, compare);
 438              		.loc 1 590 0
 439 000c 034B     		ldr	r3, .L31
 440 000e FA1D     		add	r2, r7, #7
 441 0010 1278     		ldrb	r2, [r2]
 442 0012 1A70     		strb	r2, [r3]
 591:.\Generated_Source\PSoC4/PWM_1.c ****         #endif /* (PWM_1_UsingFixedFunction) */
 592:.\Generated_Source\PSoC4/PWM_1.c ****     }
 443              		.loc 1 592 0
 444 0014 BD46     		mov	sp, r7
 445 0016 02B0     		add	sp, sp, #8
 446              		@ sp needed
 447 0018 80BD     		pop	{r7, pc}
 448              	.L32:
 449 001a C046     		.align	2
 450              	.L31:
 451 001c 30000F40 		.word	1074724912
 452              		.cfi_endproc
 453              	.LFE11:
 454              		.size	PWM_1_WriteCompare2, .-PWM_1_WriteCompare2
 455              		.section	.text.PWM_1_SetInterruptMode,"ax",%progbits
 456              		.align	2
 457              		.global	PWM_1_SetInterruptMode
 458              		.code	16
 459              		.thumb_func
 460              		.type	PWM_1_SetInterruptMode, %function
 461              	PWM_1_SetInterruptMode:
 462              	.LFB12:
 593:.\Generated_Source\PSoC4/PWM_1.c **** #endif /* UseOneCompareMode */
 594:.\Generated_Source\PSoC4/PWM_1.c **** 
 595:.\Generated_Source\PSoC4/PWM_1.c **** #if (PWM_1_DeadBandUsed)
 596:.\Generated_Source\PSoC4/PWM_1.c **** 
 597:.\Generated_Source\PSoC4/PWM_1.c **** 
 598:.\Generated_Source\PSoC4/PWM_1.c ****     /*******************************************************************************
 599:.\Generated_Source\PSoC4/PWM_1.c ****     * Function Name: PWM_1_WriteDeadTime
 600:.\Generated_Source\PSoC4/PWM_1.c ****     ********************************************************************************
 601:.\Generated_Source\PSoC4/PWM_1.c ****     *
 602:.\Generated_Source\PSoC4/PWM_1.c ****     * Summary:
 603:.\Generated_Source\PSoC4/PWM_1.c ****     *  This function writes the dead-band counts to the corresponding register
 604:.\Generated_Source\PSoC4/PWM_1.c ****     *
 605:.\Generated_Source\PSoC4/PWM_1.c ****     * Parameters:
 606:.\Generated_Source\PSoC4/PWM_1.c ****     *  deadtime:  Number of counts for dead time
 607:.\Generated_Source\PSoC4/PWM_1.c ****     *
 608:.\Generated_Source\PSoC4/PWM_1.c ****     * Return:
 609:.\Generated_Source\PSoC4/PWM_1.c ****     *  None
 610:.\Generated_Source\PSoC4/PWM_1.c ****     *
 611:.\Generated_Source\PSoC4/PWM_1.c ****     *******************************************************************************/
 612:.\Generated_Source\PSoC4/PWM_1.c ****     void PWM_1_WriteDeadTime(uint8 deadtime) 
 613:.\Generated_Source\PSoC4/PWM_1.c ****     {
 614:.\Generated_Source\PSoC4/PWM_1.c ****         /* If using the Dead Band 1-255 mode then just write the register */
 615:.\Generated_Source\PSoC4/PWM_1.c ****         #if(!PWM_1_DeadBand2_4)
 616:.\Generated_Source\PSoC4/PWM_1.c ****             CY_SET_REG8(PWM_1_DEADBAND_COUNT_PTR, deadtime);
 617:.\Generated_Source\PSoC4/PWM_1.c ****         #else
 618:.\Generated_Source\PSoC4/PWM_1.c ****             /* Otherwise the data has to be masked and offset */
 619:.\Generated_Source\PSoC4/PWM_1.c ****             /* Clear existing data */
 620:.\Generated_Source\PSoC4/PWM_1.c ****             PWM_1_DEADBAND_COUNT &= ((uint8)(~PWM_1_DEADBAND_COUNT_MASK));
ARM GAS  C:\Users\jsing\AppData\Local\Temp\ccbWMv7t.s 			page 20


 621:.\Generated_Source\PSoC4/PWM_1.c **** 
 622:.\Generated_Source\PSoC4/PWM_1.c ****             /* Set new dead time */
 623:.\Generated_Source\PSoC4/PWM_1.c ****             #if(PWM_1_DEADBAND_COUNT_SHIFT)
 624:.\Generated_Source\PSoC4/PWM_1.c ****                 PWM_1_DEADBAND_COUNT |= ((uint8)((uint8)deadtime << PWM_1_DEADBAND_COUNT_SHIFT)) &
 625:.\Generated_Source\PSoC4/PWM_1.c ****                                                     PWM_1_DEADBAND_COUNT_MASK;
 626:.\Generated_Source\PSoC4/PWM_1.c ****             #else
 627:.\Generated_Source\PSoC4/PWM_1.c ****                 PWM_1_DEADBAND_COUNT |= deadtime & PWM_1_DEADBAND_COUNT_MASK;
 628:.\Generated_Source\PSoC4/PWM_1.c ****             #endif /* (PWM_1_DEADBAND_COUNT_SHIFT) */
 629:.\Generated_Source\PSoC4/PWM_1.c **** 
 630:.\Generated_Source\PSoC4/PWM_1.c ****         #endif /* (!PWM_1_DeadBand2_4) */
 631:.\Generated_Source\PSoC4/PWM_1.c ****     }
 632:.\Generated_Source\PSoC4/PWM_1.c **** 
 633:.\Generated_Source\PSoC4/PWM_1.c **** 
 634:.\Generated_Source\PSoC4/PWM_1.c ****     /*******************************************************************************
 635:.\Generated_Source\PSoC4/PWM_1.c ****     * Function Name: PWM_1_ReadDeadTime
 636:.\Generated_Source\PSoC4/PWM_1.c ****     ********************************************************************************
 637:.\Generated_Source\PSoC4/PWM_1.c ****     *
 638:.\Generated_Source\PSoC4/PWM_1.c ****     * Summary:
 639:.\Generated_Source\PSoC4/PWM_1.c ****     *  This function reads the dead-band counts from the corresponding register
 640:.\Generated_Source\PSoC4/PWM_1.c ****     *
 641:.\Generated_Source\PSoC4/PWM_1.c ****     * Parameters:
 642:.\Generated_Source\PSoC4/PWM_1.c ****     *  None
 643:.\Generated_Source\PSoC4/PWM_1.c ****     *
 644:.\Generated_Source\PSoC4/PWM_1.c ****     * Return:
 645:.\Generated_Source\PSoC4/PWM_1.c ****     *  Dead Band Counts
 646:.\Generated_Source\PSoC4/PWM_1.c ****     *
 647:.\Generated_Source\PSoC4/PWM_1.c ****     *******************************************************************************/
 648:.\Generated_Source\PSoC4/PWM_1.c ****     uint8 PWM_1_ReadDeadTime(void) 
 649:.\Generated_Source\PSoC4/PWM_1.c ****     {
 650:.\Generated_Source\PSoC4/PWM_1.c ****         /* If using the Dead Band 1-255 mode then just read the register */
 651:.\Generated_Source\PSoC4/PWM_1.c ****         #if(!PWM_1_DeadBand2_4)
 652:.\Generated_Source\PSoC4/PWM_1.c ****             return (CY_GET_REG8(PWM_1_DEADBAND_COUNT_PTR));
 653:.\Generated_Source\PSoC4/PWM_1.c ****         #else
 654:.\Generated_Source\PSoC4/PWM_1.c **** 
 655:.\Generated_Source\PSoC4/PWM_1.c ****             /* Otherwise the data has to be masked and offset */
 656:.\Generated_Source\PSoC4/PWM_1.c ****             #if(PWM_1_DEADBAND_COUNT_SHIFT)
 657:.\Generated_Source\PSoC4/PWM_1.c ****                 return ((uint8)(((uint8)(PWM_1_DEADBAND_COUNT & PWM_1_DEADBAND_COUNT_MASK)) >>
 658:.\Generated_Source\PSoC4/PWM_1.c ****                                                                            PWM_1_DEADBAND_COUNT_SHI
 659:.\Generated_Source\PSoC4/PWM_1.c ****             #else
 660:.\Generated_Source\PSoC4/PWM_1.c ****                 return (PWM_1_DEADBAND_COUNT & PWM_1_DEADBAND_COUNT_MASK);
 661:.\Generated_Source\PSoC4/PWM_1.c ****             #endif /* (PWM_1_DEADBAND_COUNT_SHIFT) */
 662:.\Generated_Source\PSoC4/PWM_1.c ****         #endif /* (!PWM_1_DeadBand2_4) */
 663:.\Generated_Source\PSoC4/PWM_1.c ****     }
 664:.\Generated_Source\PSoC4/PWM_1.c **** #endif /* DeadBandUsed */
 665:.\Generated_Source\PSoC4/PWM_1.c **** 
 666:.\Generated_Source\PSoC4/PWM_1.c **** #if (PWM_1_UseStatus || PWM_1_UsingFixedFunction)
 667:.\Generated_Source\PSoC4/PWM_1.c **** 
 668:.\Generated_Source\PSoC4/PWM_1.c **** 
 669:.\Generated_Source\PSoC4/PWM_1.c ****     /*******************************************************************************
 670:.\Generated_Source\PSoC4/PWM_1.c ****     * Function Name: PWM_1_SetInterruptMode
 671:.\Generated_Source\PSoC4/PWM_1.c ****     ********************************************************************************
 672:.\Generated_Source\PSoC4/PWM_1.c ****     *
 673:.\Generated_Source\PSoC4/PWM_1.c ****     * Summary:
 674:.\Generated_Source\PSoC4/PWM_1.c ****     *  This function configures the interrupts mask control of theinterrupt
 675:.\Generated_Source\PSoC4/PWM_1.c ****     *  source status register.
 676:.\Generated_Source\PSoC4/PWM_1.c ****     *
 677:.\Generated_Source\PSoC4/PWM_1.c ****     * Parameters:
ARM GAS  C:\Users\jsing\AppData\Local\Temp\ccbWMv7t.s 			page 21


 678:.\Generated_Source\PSoC4/PWM_1.c ****     *  uint8 interruptMode: Bit field containing the interrupt sources enabled
 679:.\Generated_Source\PSoC4/PWM_1.c ****     *
 680:.\Generated_Source\PSoC4/PWM_1.c ****     * Return:
 681:.\Generated_Source\PSoC4/PWM_1.c ****     *  None
 682:.\Generated_Source\PSoC4/PWM_1.c ****     *
 683:.\Generated_Source\PSoC4/PWM_1.c ****     *******************************************************************************/
 684:.\Generated_Source\PSoC4/PWM_1.c ****     void PWM_1_SetInterruptMode(uint8 interruptMode) 
 685:.\Generated_Source\PSoC4/PWM_1.c ****     {
 463              		.loc 1 685 0
 464              		.cfi_startproc
 465 0000 80B5     		push	{r7, lr}
 466              		.cfi_def_cfa_offset 8
 467              		.cfi_offset 7, -8
 468              		.cfi_offset 14, -4
 469 0002 82B0     		sub	sp, sp, #8
 470              		.cfi_def_cfa_offset 16
 471 0004 00AF     		add	r7, sp, #0
 472              		.cfi_def_cfa_register 7
 473 0006 021C     		mov	r2, r0
 474 0008 FB1D     		add	r3, r7, #7
 475 000a 1A70     		strb	r2, [r3]
 686:.\Generated_Source\PSoC4/PWM_1.c ****         CY_SET_REG8(PWM_1_STATUS_MASK_PTR, interruptMode);
 476              		.loc 1 686 0
 477 000c 034B     		ldr	r3, .L34
 478 000e FA1D     		add	r2, r7, #7
 479 0010 1278     		ldrb	r2, [r2]
 480 0012 1A70     		strb	r2, [r3]
 687:.\Generated_Source\PSoC4/PWM_1.c ****     }
 481              		.loc 1 687 0
 482 0014 BD46     		mov	sp, r7
 483 0016 02B0     		add	sp, sp, #8
 484              		@ sp needed
 485 0018 80BD     		pop	{r7, pc}
 486              	.L35:
 487 001a C046     		.align	2
 488              	.L34:
 489 001c 80000F40 		.word	1074724992
 490              		.cfi_endproc
 491              	.LFE12:
 492              		.size	PWM_1_SetInterruptMode, .-PWM_1_SetInterruptMode
 493              		.section	.text.PWM_1_ReadStatusRegister,"ax",%progbits
 494              		.align	2
 495              		.global	PWM_1_ReadStatusRegister
 496              		.code	16
 497              		.thumb_func
 498              		.type	PWM_1_ReadStatusRegister, %function
 499              	PWM_1_ReadStatusRegister:
 500              	.LFB13:
 688:.\Generated_Source\PSoC4/PWM_1.c **** 
 689:.\Generated_Source\PSoC4/PWM_1.c **** 
 690:.\Generated_Source\PSoC4/PWM_1.c ****     /*******************************************************************************
 691:.\Generated_Source\PSoC4/PWM_1.c ****     * Function Name: PWM_1_ReadStatusRegister
 692:.\Generated_Source\PSoC4/PWM_1.c ****     ********************************************************************************
 693:.\Generated_Source\PSoC4/PWM_1.c ****     *
 694:.\Generated_Source\PSoC4/PWM_1.c ****     * Summary:
 695:.\Generated_Source\PSoC4/PWM_1.c ****     *  This function returns the current state of the status register.
 696:.\Generated_Source\PSoC4/PWM_1.c ****     *
ARM GAS  C:\Users\jsing\AppData\Local\Temp\ccbWMv7t.s 			page 22


 697:.\Generated_Source\PSoC4/PWM_1.c ****     * Parameters:
 698:.\Generated_Source\PSoC4/PWM_1.c ****     *  None
 699:.\Generated_Source\PSoC4/PWM_1.c ****     *
 700:.\Generated_Source\PSoC4/PWM_1.c ****     * Return:
 701:.\Generated_Source\PSoC4/PWM_1.c ****     *  uint8 : Current status register value. The status register bits are:
 702:.\Generated_Source\PSoC4/PWM_1.c ****     *  [7:6] : Unused(0)
 703:.\Generated_Source\PSoC4/PWM_1.c ****     *  [5]   : Kill event output
 704:.\Generated_Source\PSoC4/PWM_1.c ****     *  [4]   : FIFO not empty
 705:.\Generated_Source\PSoC4/PWM_1.c ****     *  [3]   : FIFO full
 706:.\Generated_Source\PSoC4/PWM_1.c ****     *  [2]   : Terminal count
 707:.\Generated_Source\PSoC4/PWM_1.c ****     *  [1]   : Compare output 2
 708:.\Generated_Source\PSoC4/PWM_1.c ****     *  [0]   : Compare output 1
 709:.\Generated_Source\PSoC4/PWM_1.c ****     *
 710:.\Generated_Source\PSoC4/PWM_1.c ****     *******************************************************************************/
 711:.\Generated_Source\PSoC4/PWM_1.c ****     uint8 PWM_1_ReadStatusRegister(void) 
 712:.\Generated_Source\PSoC4/PWM_1.c ****     {
 501              		.loc 1 712 0
 502              		.cfi_startproc
 503 0000 80B5     		push	{r7, lr}
 504              		.cfi_def_cfa_offset 8
 505              		.cfi_offset 7, -8
 506              		.cfi_offset 14, -4
 507 0002 00AF     		add	r7, sp, #0
 508              		.cfi_def_cfa_register 7
 713:.\Generated_Source\PSoC4/PWM_1.c ****         return (CY_GET_REG8(PWM_1_STATUS_PTR));
 509              		.loc 1 713 0
 510 0004 024B     		ldr	r3, .L38
 511 0006 1B78     		ldrb	r3, [r3]
 512 0008 DBB2     		uxtb	r3, r3
 714:.\Generated_Source\PSoC4/PWM_1.c ****     }
 513              		.loc 1 714 0
 514 000a 181C     		mov	r0, r3
 515 000c BD46     		mov	sp, r7
 516              		@ sp needed
 517 000e 80BD     		pop	{r7, pc}
 518              	.L39:
 519              		.align	2
 520              	.L38:
 521 0010 60000F40 		.word	1074724960
 522              		.cfi_endproc
 523              	.LFE13:
 524              		.size	PWM_1_ReadStatusRegister, .-PWM_1_ReadStatusRegister
 525              		.section	.text.PWM_1_ReadControlRegister,"ax",%progbits
 526              		.align	2
 527              		.global	PWM_1_ReadControlRegister
 528              		.code	16
 529              		.thumb_func
 530              		.type	PWM_1_ReadControlRegister, %function
 531              	PWM_1_ReadControlRegister:
 532              	.LFB14:
 715:.\Generated_Source\PSoC4/PWM_1.c **** 
 716:.\Generated_Source\PSoC4/PWM_1.c **** #endif /* (PWM_1_UseStatus || PWM_1_UsingFixedFunction) */
 717:.\Generated_Source\PSoC4/PWM_1.c **** 
 718:.\Generated_Source\PSoC4/PWM_1.c **** 
 719:.\Generated_Source\PSoC4/PWM_1.c **** #if (PWM_1_UseControl)
 720:.\Generated_Source\PSoC4/PWM_1.c **** 
 721:.\Generated_Source\PSoC4/PWM_1.c **** 
ARM GAS  C:\Users\jsing\AppData\Local\Temp\ccbWMv7t.s 			page 23


 722:.\Generated_Source\PSoC4/PWM_1.c ****     /*******************************************************************************
 723:.\Generated_Source\PSoC4/PWM_1.c ****     * Function Name: PWM_1_ReadControlRegister
 724:.\Generated_Source\PSoC4/PWM_1.c ****     ********************************************************************************
 725:.\Generated_Source\PSoC4/PWM_1.c ****     *
 726:.\Generated_Source\PSoC4/PWM_1.c ****     * Summary:
 727:.\Generated_Source\PSoC4/PWM_1.c ****     *  Returns the current state of the control register. This API is available
 728:.\Generated_Source\PSoC4/PWM_1.c ****     *  only if the control register is not removed.
 729:.\Generated_Source\PSoC4/PWM_1.c ****     *
 730:.\Generated_Source\PSoC4/PWM_1.c ****     * Parameters:
 731:.\Generated_Source\PSoC4/PWM_1.c ****     *  None
 732:.\Generated_Source\PSoC4/PWM_1.c ****     *
 733:.\Generated_Source\PSoC4/PWM_1.c ****     * Return:
 734:.\Generated_Source\PSoC4/PWM_1.c ****     *  uint8 : Current control register value
 735:.\Generated_Source\PSoC4/PWM_1.c ****     *
 736:.\Generated_Source\PSoC4/PWM_1.c ****     *******************************************************************************/
 737:.\Generated_Source\PSoC4/PWM_1.c ****     uint8 PWM_1_ReadControlRegister(void) 
 738:.\Generated_Source\PSoC4/PWM_1.c ****     {
 533              		.loc 1 738 0
 534              		.cfi_startproc
 535 0000 80B5     		push	{r7, lr}
 536              		.cfi_def_cfa_offset 8
 537              		.cfi_offset 7, -8
 538              		.cfi_offset 14, -4
 539 0002 82B0     		sub	sp, sp, #8
 540              		.cfi_def_cfa_offset 16
 541 0004 00AF     		add	r7, sp, #0
 542              		.cfi_def_cfa_register 7
 739:.\Generated_Source\PSoC4/PWM_1.c ****         uint8 result;
 740:.\Generated_Source\PSoC4/PWM_1.c **** 
 741:.\Generated_Source\PSoC4/PWM_1.c ****         result = CY_GET_REG8(PWM_1_CONTROL_PTR);
 543              		.loc 1 741 0
 544 0006 054A     		ldr	r2, .L42
 545 0008 FB1D     		add	r3, r7, #7
 546 000a 1278     		ldrb	r2, [r2]
 547 000c 1A70     		strb	r2, [r3]
 742:.\Generated_Source\PSoC4/PWM_1.c ****         return (result);
 548              		.loc 1 742 0
 549 000e FB1D     		add	r3, r7, #7
 550 0010 1B78     		ldrb	r3, [r3]
 743:.\Generated_Source\PSoC4/PWM_1.c ****     }
 551              		.loc 1 743 0
 552 0012 181C     		mov	r0, r3
 553 0014 BD46     		mov	sp, r7
 554 0016 02B0     		add	sp, sp, #8
 555              		@ sp needed
 556 0018 80BD     		pop	{r7, pc}
 557              	.L43:
 558 001a C046     		.align	2
 559              	.L42:
 560 001c 70000F40 		.word	1074724976
 561              		.cfi_endproc
 562              	.LFE14:
 563              		.size	PWM_1_ReadControlRegister, .-PWM_1_ReadControlRegister
 564              		.section	.text.PWM_1_WriteControlRegister,"ax",%progbits
 565              		.align	2
 566              		.global	PWM_1_WriteControlRegister
 567              		.code	16
ARM GAS  C:\Users\jsing\AppData\Local\Temp\ccbWMv7t.s 			page 24


 568              		.thumb_func
 569              		.type	PWM_1_WriteControlRegister, %function
 570              	PWM_1_WriteControlRegister:
 571              	.LFB15:
 744:.\Generated_Source\PSoC4/PWM_1.c **** 
 745:.\Generated_Source\PSoC4/PWM_1.c **** 
 746:.\Generated_Source\PSoC4/PWM_1.c ****     /*******************************************************************************
 747:.\Generated_Source\PSoC4/PWM_1.c ****     * Function Name: PWM_1_WriteControlRegister
 748:.\Generated_Source\PSoC4/PWM_1.c ****     ********************************************************************************
 749:.\Generated_Source\PSoC4/PWM_1.c ****     *
 750:.\Generated_Source\PSoC4/PWM_1.c ****     * Summary:
 751:.\Generated_Source\PSoC4/PWM_1.c ****     *  Sets the bit field of the control register. This API is available only if
 752:.\Generated_Source\PSoC4/PWM_1.c ****     *  the control register is not removed.
 753:.\Generated_Source\PSoC4/PWM_1.c ****     *
 754:.\Generated_Source\PSoC4/PWM_1.c ****     * Parameters:
 755:.\Generated_Source\PSoC4/PWM_1.c ****     *  uint8 control: Control register bit field, The status register bits are:
 756:.\Generated_Source\PSoC4/PWM_1.c ****     *  [7]   : PWM Enable
 757:.\Generated_Source\PSoC4/PWM_1.c ****     *  [6]   : Reset
 758:.\Generated_Source\PSoC4/PWM_1.c ****     *  [5:3] : Compare Mode2
 759:.\Generated_Source\PSoC4/PWM_1.c ****     *  [2:0] : Compare Mode2
 760:.\Generated_Source\PSoC4/PWM_1.c ****     *
 761:.\Generated_Source\PSoC4/PWM_1.c ****     * Return:
 762:.\Generated_Source\PSoC4/PWM_1.c ****     *  None
 763:.\Generated_Source\PSoC4/PWM_1.c ****     *
 764:.\Generated_Source\PSoC4/PWM_1.c ****     *******************************************************************************/
 765:.\Generated_Source\PSoC4/PWM_1.c ****     void PWM_1_WriteControlRegister(uint8 control) 
 766:.\Generated_Source\PSoC4/PWM_1.c ****     {
 572              		.loc 1 766 0
 573              		.cfi_startproc
 574 0000 80B5     		push	{r7, lr}
 575              		.cfi_def_cfa_offset 8
 576              		.cfi_offset 7, -8
 577              		.cfi_offset 14, -4
 578 0002 82B0     		sub	sp, sp, #8
 579              		.cfi_def_cfa_offset 16
 580 0004 00AF     		add	r7, sp, #0
 581              		.cfi_def_cfa_register 7
 582 0006 021C     		mov	r2, r0
 583 0008 FB1D     		add	r3, r7, #7
 584 000a 1A70     		strb	r2, [r3]
 767:.\Generated_Source\PSoC4/PWM_1.c ****         CY_SET_REG8(PWM_1_CONTROL_PTR, control);
 585              		.loc 1 767 0
 586 000c 034B     		ldr	r3, .L45
 587 000e FA1D     		add	r2, r7, #7
 588 0010 1278     		ldrb	r2, [r2]
 589 0012 1A70     		strb	r2, [r3]
 768:.\Generated_Source\PSoC4/PWM_1.c ****     }
 590              		.loc 1 768 0
 591 0014 BD46     		mov	sp, r7
 592 0016 02B0     		add	sp, sp, #8
 593              		@ sp needed
 594 0018 80BD     		pop	{r7, pc}
 595              	.L46:
 596 001a C046     		.align	2
 597              	.L45:
 598 001c 70000F40 		.word	1074724976
 599              		.cfi_endproc
ARM GAS  C:\Users\jsing\AppData\Local\Temp\ccbWMv7t.s 			page 25


 600              	.LFE15:
 601              		.size	PWM_1_WriteControlRegister, .-PWM_1_WriteControlRegister
 602              		.section	.text.PWM_1_ReadCapture,"ax",%progbits
 603              		.align	2
 604              		.global	PWM_1_ReadCapture
 605              		.code	16
 606              		.thumb_func
 607              		.type	PWM_1_ReadCapture, %function
 608              	PWM_1_ReadCapture:
 609              	.LFB16:
 769:.\Generated_Source\PSoC4/PWM_1.c **** 
 770:.\Generated_Source\PSoC4/PWM_1.c **** #endif /* (PWM_1_UseControl) */
 771:.\Generated_Source\PSoC4/PWM_1.c **** 
 772:.\Generated_Source\PSoC4/PWM_1.c **** 
 773:.\Generated_Source\PSoC4/PWM_1.c **** #if (!PWM_1_UsingFixedFunction)
 774:.\Generated_Source\PSoC4/PWM_1.c **** 
 775:.\Generated_Source\PSoC4/PWM_1.c **** 
 776:.\Generated_Source\PSoC4/PWM_1.c ****     /*******************************************************************************
 777:.\Generated_Source\PSoC4/PWM_1.c ****     * Function Name: PWM_1_ReadCapture
 778:.\Generated_Source\PSoC4/PWM_1.c ****     ********************************************************************************
 779:.\Generated_Source\PSoC4/PWM_1.c ****     *
 780:.\Generated_Source\PSoC4/PWM_1.c ****     * Summary:
 781:.\Generated_Source\PSoC4/PWM_1.c ****     *  Reads the capture value from the capture FIFO.
 782:.\Generated_Source\PSoC4/PWM_1.c ****     *
 783:.\Generated_Source\PSoC4/PWM_1.c ****     * Parameters:
 784:.\Generated_Source\PSoC4/PWM_1.c ****     *  None
 785:.\Generated_Source\PSoC4/PWM_1.c ****     *
 786:.\Generated_Source\PSoC4/PWM_1.c ****     * Return:
 787:.\Generated_Source\PSoC4/PWM_1.c ****     *  uint8/uint16: The current capture value
 788:.\Generated_Source\PSoC4/PWM_1.c ****     *
 789:.\Generated_Source\PSoC4/PWM_1.c ****     *******************************************************************************/
 790:.\Generated_Source\PSoC4/PWM_1.c ****     uint8 PWM_1_ReadCapture(void) 
 791:.\Generated_Source\PSoC4/PWM_1.c ****     {
 610              		.loc 1 791 0
 611              		.cfi_startproc
 612 0000 80B5     		push	{r7, lr}
 613              		.cfi_def_cfa_offset 8
 614              		.cfi_offset 7, -8
 615              		.cfi_offset 14, -4
 616 0002 00AF     		add	r7, sp, #0
 617              		.cfi_def_cfa_register 7
 792:.\Generated_Source\PSoC4/PWM_1.c ****         return (CY_GET_REG8(PWM_1_CAPTURE_LSB_PTR));
 618              		.loc 1 792 0
 619 0004 024B     		ldr	r3, .L49
 620 0006 1B78     		ldrb	r3, [r3]
 621 0008 DBB2     		uxtb	r3, r3
 793:.\Generated_Source\PSoC4/PWM_1.c ****     }
 622              		.loc 1 793 0
 623 000a 181C     		mov	r0, r3
 624 000c BD46     		mov	sp, r7
 625              		@ sp needed
 626 000e 80BD     		pop	{r7, pc}
 627              	.L50:
 628              		.align	2
 629              	.L49:
 630 0010 50000F40 		.word	1074724944
 631              		.cfi_endproc
ARM GAS  C:\Users\jsing\AppData\Local\Temp\ccbWMv7t.s 			page 26


 632              	.LFE16:
 633              		.size	PWM_1_ReadCapture, .-PWM_1_ReadCapture
 634              		.section	.text.PWM_1_ReadCompare1,"ax",%progbits
 635              		.align	2
 636              		.global	PWM_1_ReadCompare1
 637              		.code	16
 638              		.thumb_func
 639              		.type	PWM_1_ReadCompare1, %function
 640              	PWM_1_ReadCompare1:
 641              	.LFB17:
 794:.\Generated_Source\PSoC4/PWM_1.c **** 
 795:.\Generated_Source\PSoC4/PWM_1.c **** #endif /* (!PWM_1_UsingFixedFunction) */
 796:.\Generated_Source\PSoC4/PWM_1.c **** 
 797:.\Generated_Source\PSoC4/PWM_1.c **** 
 798:.\Generated_Source\PSoC4/PWM_1.c **** #if (PWM_1_UseOneCompareMode)
 799:.\Generated_Source\PSoC4/PWM_1.c **** 
 800:.\Generated_Source\PSoC4/PWM_1.c **** 
 801:.\Generated_Source\PSoC4/PWM_1.c ****     /*******************************************************************************
 802:.\Generated_Source\PSoC4/PWM_1.c ****     * Function Name: PWM_1_ReadCompare
 803:.\Generated_Source\PSoC4/PWM_1.c ****     ********************************************************************************
 804:.\Generated_Source\PSoC4/PWM_1.c ****     *
 805:.\Generated_Source\PSoC4/PWM_1.c ****     * Summary:
 806:.\Generated_Source\PSoC4/PWM_1.c ****     *  Reads the compare value for the compare output when the PWM Mode parameter is
 807:.\Generated_Source\PSoC4/PWM_1.c ****     *  set to Dither mode, Center Aligned mode, or One Output mode.
 808:.\Generated_Source\PSoC4/PWM_1.c ****     *
 809:.\Generated_Source\PSoC4/PWM_1.c ****     * Parameters:
 810:.\Generated_Source\PSoC4/PWM_1.c ****     *  None
 811:.\Generated_Source\PSoC4/PWM_1.c ****     *
 812:.\Generated_Source\PSoC4/PWM_1.c ****     * Return:
 813:.\Generated_Source\PSoC4/PWM_1.c ****     *  uint8/uint16: Current compare value
 814:.\Generated_Source\PSoC4/PWM_1.c ****     *
 815:.\Generated_Source\PSoC4/PWM_1.c ****     *******************************************************************************/
 816:.\Generated_Source\PSoC4/PWM_1.c ****     uint8 PWM_1_ReadCompare(void) 
 817:.\Generated_Source\PSoC4/PWM_1.c ****     {
 818:.\Generated_Source\PSoC4/PWM_1.c ****         #if(PWM_1_UsingFixedFunction)
 819:.\Generated_Source\PSoC4/PWM_1.c ****             return ((uint8)CY_GET_REG16(PWM_1_COMPARE1_LSB_PTR));
 820:.\Generated_Source\PSoC4/PWM_1.c ****         #else
 821:.\Generated_Source\PSoC4/PWM_1.c ****             return (CY_GET_REG8(PWM_1_COMPARE1_LSB_PTR));
 822:.\Generated_Source\PSoC4/PWM_1.c ****         #endif /* (PWM_1_UsingFixedFunction) */
 823:.\Generated_Source\PSoC4/PWM_1.c ****     }
 824:.\Generated_Source\PSoC4/PWM_1.c **** 
 825:.\Generated_Source\PSoC4/PWM_1.c **** #else
 826:.\Generated_Source\PSoC4/PWM_1.c **** 
 827:.\Generated_Source\PSoC4/PWM_1.c **** 
 828:.\Generated_Source\PSoC4/PWM_1.c ****     /*******************************************************************************
 829:.\Generated_Source\PSoC4/PWM_1.c ****     * Function Name: PWM_1_ReadCompare1
 830:.\Generated_Source\PSoC4/PWM_1.c ****     ********************************************************************************
 831:.\Generated_Source\PSoC4/PWM_1.c ****     *
 832:.\Generated_Source\PSoC4/PWM_1.c ****     * Summary:
 833:.\Generated_Source\PSoC4/PWM_1.c ****     *  Reads the compare value for the compare1 output.
 834:.\Generated_Source\PSoC4/PWM_1.c ****     *
 835:.\Generated_Source\PSoC4/PWM_1.c ****     * Parameters:
 836:.\Generated_Source\PSoC4/PWM_1.c ****     *  None
 837:.\Generated_Source\PSoC4/PWM_1.c ****     *
 838:.\Generated_Source\PSoC4/PWM_1.c ****     * Return:
 839:.\Generated_Source\PSoC4/PWM_1.c ****     *  uint8/uint16: Current compare value.
 840:.\Generated_Source\PSoC4/PWM_1.c ****     *
ARM GAS  C:\Users\jsing\AppData\Local\Temp\ccbWMv7t.s 			page 27


 841:.\Generated_Source\PSoC4/PWM_1.c ****     *******************************************************************************/
 842:.\Generated_Source\PSoC4/PWM_1.c ****     uint8 PWM_1_ReadCompare1(void) 
 843:.\Generated_Source\PSoC4/PWM_1.c ****     {
 642              		.loc 1 843 0
 643              		.cfi_startproc
 644 0000 80B5     		push	{r7, lr}
 645              		.cfi_def_cfa_offset 8
 646              		.cfi_offset 7, -8
 647              		.cfi_offset 14, -4
 648 0002 00AF     		add	r7, sp, #0
 649              		.cfi_def_cfa_register 7
 844:.\Generated_Source\PSoC4/PWM_1.c ****         return (CY_GET_REG8(PWM_1_COMPARE1_LSB_PTR));
 650              		.loc 1 844 0
 651 0004 024B     		ldr	r3, .L53
 652 0006 1B78     		ldrb	r3, [r3]
 653 0008 DBB2     		uxtb	r3, r3
 845:.\Generated_Source\PSoC4/PWM_1.c ****     }
 654              		.loc 1 845 0
 655 000a 181C     		mov	r0, r3
 656 000c BD46     		mov	sp, r7
 657              		@ sp needed
 658 000e 80BD     		pop	{r7, pc}
 659              	.L54:
 660              		.align	2
 661              	.L53:
 662 0010 20000F40 		.word	1074724896
 663              		.cfi_endproc
 664              	.LFE17:
 665              		.size	PWM_1_ReadCompare1, .-PWM_1_ReadCompare1
 666              		.section	.text.PWM_1_ReadCompare2,"ax",%progbits
 667              		.align	2
 668              		.global	PWM_1_ReadCompare2
 669              		.code	16
 670              		.thumb_func
 671              		.type	PWM_1_ReadCompare2, %function
 672              	PWM_1_ReadCompare2:
 673              	.LFB18:
 846:.\Generated_Source\PSoC4/PWM_1.c **** 
 847:.\Generated_Source\PSoC4/PWM_1.c **** 
 848:.\Generated_Source\PSoC4/PWM_1.c ****     /*******************************************************************************
 849:.\Generated_Source\PSoC4/PWM_1.c ****     * Function Name: PWM_1_ReadCompare2
 850:.\Generated_Source\PSoC4/PWM_1.c ****     ********************************************************************************
 851:.\Generated_Source\PSoC4/PWM_1.c ****     *
 852:.\Generated_Source\PSoC4/PWM_1.c ****     * Summary:
 853:.\Generated_Source\PSoC4/PWM_1.c ****     *  Reads the compare value for the compare2 output.
 854:.\Generated_Source\PSoC4/PWM_1.c ****     *
 855:.\Generated_Source\PSoC4/PWM_1.c ****     * Parameters:
 856:.\Generated_Source\PSoC4/PWM_1.c ****     *  None
 857:.\Generated_Source\PSoC4/PWM_1.c ****     *
 858:.\Generated_Source\PSoC4/PWM_1.c ****     * Return:
 859:.\Generated_Source\PSoC4/PWM_1.c ****     *  uint8/uint16: Current compare value.
 860:.\Generated_Source\PSoC4/PWM_1.c ****     *
 861:.\Generated_Source\PSoC4/PWM_1.c ****     *******************************************************************************/
 862:.\Generated_Source\PSoC4/PWM_1.c ****     uint8 PWM_1_ReadCompare2(void) 
 863:.\Generated_Source\PSoC4/PWM_1.c ****     {
 674              		.loc 1 863 0
 675              		.cfi_startproc
ARM GAS  C:\Users\jsing\AppData\Local\Temp\ccbWMv7t.s 			page 28


 676 0000 80B5     		push	{r7, lr}
 677              		.cfi_def_cfa_offset 8
 678              		.cfi_offset 7, -8
 679              		.cfi_offset 14, -4
 680 0002 00AF     		add	r7, sp, #0
 681              		.cfi_def_cfa_register 7
 864:.\Generated_Source\PSoC4/PWM_1.c ****         return (CY_GET_REG8(PWM_1_COMPARE2_LSB_PTR));
 682              		.loc 1 864 0
 683 0004 024B     		ldr	r3, .L57
 684 0006 1B78     		ldrb	r3, [r3]
 685 0008 DBB2     		uxtb	r3, r3
 865:.\Generated_Source\PSoC4/PWM_1.c ****     }
 686              		.loc 1 865 0
 687 000a 181C     		mov	r0, r3
 688 000c BD46     		mov	sp, r7
 689              		@ sp needed
 690 000e 80BD     		pop	{r7, pc}
 691              	.L58:
 692              		.align	2
 693              	.L57:
 694 0010 30000F40 		.word	1074724912
 695              		.cfi_endproc
 696              	.LFE18:
 697              		.size	PWM_1_ReadCompare2, .-PWM_1_ReadCompare2
 698              		.section	.text.PWM_1_ReadPeriod,"ax",%progbits
 699              		.align	2
 700              		.global	PWM_1_ReadPeriod
 701              		.code	16
 702              		.thumb_func
 703              		.type	PWM_1_ReadPeriod, %function
 704              	PWM_1_ReadPeriod:
 705              	.LFB19:
 866:.\Generated_Source\PSoC4/PWM_1.c **** 
 867:.\Generated_Source\PSoC4/PWM_1.c **** #endif /* (PWM_1_UseOneCompareMode) */
 868:.\Generated_Source\PSoC4/PWM_1.c **** 
 869:.\Generated_Source\PSoC4/PWM_1.c **** 
 870:.\Generated_Source\PSoC4/PWM_1.c **** /*******************************************************************************
 871:.\Generated_Source\PSoC4/PWM_1.c **** * Function Name: PWM_1_ReadPeriod
 872:.\Generated_Source\PSoC4/PWM_1.c **** ********************************************************************************
 873:.\Generated_Source\PSoC4/PWM_1.c **** *
 874:.\Generated_Source\PSoC4/PWM_1.c **** * Summary:
 875:.\Generated_Source\PSoC4/PWM_1.c **** *  Reads the period value used by the PWM hardware.
 876:.\Generated_Source\PSoC4/PWM_1.c **** *
 877:.\Generated_Source\PSoC4/PWM_1.c **** * Parameters:
 878:.\Generated_Source\PSoC4/PWM_1.c **** *  None
 879:.\Generated_Source\PSoC4/PWM_1.c **** *
 880:.\Generated_Source\PSoC4/PWM_1.c **** * Return:
 881:.\Generated_Source\PSoC4/PWM_1.c **** *  uint8/16: Period value
 882:.\Generated_Source\PSoC4/PWM_1.c **** *
 883:.\Generated_Source\PSoC4/PWM_1.c **** *******************************************************************************/
 884:.\Generated_Source\PSoC4/PWM_1.c **** uint8 PWM_1_ReadPeriod(void) 
 885:.\Generated_Source\PSoC4/PWM_1.c **** {
 706              		.loc 1 885 0
 707              		.cfi_startproc
 708 0000 80B5     		push	{r7, lr}
 709              		.cfi_def_cfa_offset 8
 710              		.cfi_offset 7, -8
ARM GAS  C:\Users\jsing\AppData\Local\Temp\ccbWMv7t.s 			page 29


 711              		.cfi_offset 14, -4
 712 0002 00AF     		add	r7, sp, #0
 713              		.cfi_def_cfa_register 7
 886:.\Generated_Source\PSoC4/PWM_1.c ****     #if(PWM_1_UsingFixedFunction)
 887:.\Generated_Source\PSoC4/PWM_1.c ****         return ((uint8)CY_GET_REG16(PWM_1_PERIOD_LSB_PTR));
 888:.\Generated_Source\PSoC4/PWM_1.c ****     #else
 889:.\Generated_Source\PSoC4/PWM_1.c ****         return (CY_GET_REG8(PWM_1_PERIOD_LSB_PTR));
 714              		.loc 1 889 0
 715 0004 024B     		ldr	r3, .L61
 716 0006 1B78     		ldrb	r3, [r3]
 717 0008 DBB2     		uxtb	r3, r3
 890:.\Generated_Source\PSoC4/PWM_1.c ****     #endif /* (PWM_1_UsingFixedFunction) */
 891:.\Generated_Source\PSoC4/PWM_1.c **** }
 718              		.loc 1 891 0
 719 000a 181C     		mov	r0, r3
 720 000c BD46     		mov	sp, r7
 721              		@ sp needed
 722 000e 80BD     		pop	{r7, pc}
 723              	.L62:
 724              		.align	2
 725              	.L61:
 726 0010 40000F40 		.word	1074724928
 727              		.cfi_endproc
 728              	.LFE19:
 729              		.size	PWM_1_ReadPeriod, .-PWM_1_ReadPeriod
 730              		.text
 731              	.Letext0:
 732              		.file 2 ".\\Generated_Source\\PSoC4\\cytypes.h"